(dp0
V\u6000
p1
F0.0002941957334443145
sV\u6302
p2
F0.00010763258540645652
sV\u8000
p3
F7.893056263140145e-05
sV\u6d89
p4
F3.587752846881884e-05
sV\u8c08
p5
F0.00040900382454453477
sV\u4f0a
p6
F7.175505693763768e-06
sV\u968f
p7
F0.00038747730746324345
sV\u8302
p8
F7.175505693763768e-06
sV\u6297
p9
F0.00015068561956903912
sV\u8116
p10
F0.0001578611252628029
sV\u6599
p11
F0.00027266921636302316
sV\u4e9f
p12
F7.175505693763768e-06
sV\u6d1e
p13
F0.00012915910248774784
sV\u9020
p14
F0.00014351011387527535
sV\u77a5
p15
F8.610606832516522e-05
sV\u7624
p16
F7.175505693763768e-06
sV\u822c
p17
F0.0010619748426770376
sV\u4f5c
p18
F0.0008467096718641246
sV\u6cb3
p19
F0.00014351011387527535
sV\u6b32
p20
F0.00014351011387527535
sV\u4fb5
p21
F2.1526517081291305e-05
sV\u4e34
p22
F0.00023679168789420436
sV\u72b7
p23
F7.175505693763768e-06
sV\u7136
p24
F0.0031285204824810027
sV\u75b9
p25
F1.4351011387527537e-05
sV\u5438
p26
F9.328157401892898e-05
sV\u573a
p27
F0.0011839584394710218
sV\u5bbd
p28
F0.00021526517081291304
sV\u7ebf
p29
F0.0003157222505256058
sV\u6342
p30
F4.305303416258261e-05
sV\u53cd
p31
F0.00046640787009464494
sV\u724c
p32
F2.1526517081291305e-05
sV\u76cf
p33
F1.4351011387527537e-05
sV\u59d1
p34
F0.0002654937106692594
sV\u7b52
p35
F2.8702022775055073e-05
sV\u7fd5
p36
F2.1526517081291305e-05
sV\u568f
p37
F7.175505693763768e-06
sV\u82d7
p38
F2.8702022775055073e-05
sV\u7eb8
p39
F0.0002941957334443145
sV\u62e5
p40
F0.00011480809110022029
sV\u8bdd
p41
F0.0011983094508585493
sV\u8d5e
p42
F2.8702022775055073e-05
sV\u51e1
p43
F5.0228539856346375e-05
sV\u74e3
p44
F1.4351011387527537e-05
sV\u77e5
p45
F0.0021454762024353665
sV\u5664
p46
F7.175505693763768e-06
sV\u5de9
p47
F7.175505693763768e-06
sV\u60eb
p48
F2.1526517081291305e-05
sV\u7f6a
p49
F0.00010045707971269275
sV\u63ed
p50
F2.1526517081291305e-05
sV\u626c
p51
F0.00016503663095656667
sV\u8870
p52
F0.00010045707971269275
sV\u5176
p53
F0.000681673040907558
sV\u95f9
p54
F0.00011480809110022029
sV\u9a7c
p55
F5.0228539856346375e-05
sV\u7eff
p56
F9.328157401892898e-05
sV\u6101
p57
F9.328157401892898e-05
sV\u8403
p58
F7.175505693763768e-06
sV\u6684
p59
F1.4351011387527537e-05
sV\u8986
p60
F4.305303416258261e-05
sV\u300b
p61
F0.0002654937106692594
sV\u530d
p62
F1.4351011387527537e-05
sV\u776c
p63
F1.4351011387527537e-05
sV\u5f15
p64
F0.00016503663095656667
sV\u5e94
p65
F0.00043770584731958986
sV\u5121
p66
F7.175505693763768e-06
sV\u53a2
p67
F6.457955124387392e-05
sV\u9047
p68
F0.0002870202277505507
sV\u5d29
p69
F2.8702022775055073e-05
sV\u5faa
p70
F2.8702022775055073e-05
sV\u62ac
p71
F0.0001578611252628029
sV\u662f
p72
F0.011129209331027604
sV\u68b0
p73
F1.4351011387527537e-05
sV\u8bb2
p74
F0.00019373865373162173
sV\u5237
p75
F5.7404045550110146e-05
sV\u9539
p76
F5.7404045550110146e-05
sV\u54b8
p77
F2.1526517081291305e-05
sV\u8d1e
p78
F1.4351011387527537e-05
sV\u9abc
p79
F7.175505693763768e-06
sV\u9e3f
p80
F2.8702022775055073e-05
sV\u5fc5
p81
F0.00038747730746324345
sV\u80c0
p82
F7.893056263140145e-05
sV\u89c6
p83
F0.00046640787009464494
sV\u4fca
p84
F2.1526517081291305e-05
sV\u5951
p85
F4.305303416258261e-05
sV\u5bd2
p86
F0.0002870202277505507
sV\u5f55
p87
F0.00016503663095656667
sV\u9178
p88
F0.0001578611252628029
sV\u6559
p89
F0.00017221213665033044
sV\u8fa3
p90
F6.457955124387392e-05
sV\u8dfb
p91
F7.175505693763768e-06
sV\u4e5f
p92
F0.0026118840725300116
sV\u5624
p93
F1.4351011387527537e-05
sV\u56e4
p94
F1.4351011387527537e-05
sV\u79e6
p95
F0.0002654937106692594
sVk
p96
F0.00011480809110022029
sV\u62ec
p97
F1.4351011387527537e-05
sV\u666f
p98
F9.328157401892898e-05
sV\u6ef4
p99
F0.00012198359679398405
sV\u51f6
p100
F0.00021526517081291304
sV\u94f8
p101
F7.175505693763768e-06
sV\u987b
p102
F7.893056263140145e-05
sV\u57fa
p103
F5.0228539856346375e-05
sV\u9e7f
p104
F3.587752846881884e-05
sV\u5dfe
p105
F9.328157401892898e-05
sV\u6c89
p106
F0.0005094609042572276
sV\u918b
p107
F7.175505693763768e-06
sV\u6e0a
p108
F7.175505693763768e-06
sV\u540e
p109
F0.0028845532888930347
sV\u9891
p110
F4.305303416258261e-05
sV\u9910
p111
F6.457955124387392e-05
sV\u5e95
p112
F0.00046640787009464494
sV\u6016
p113
F3.587752846881884e-05
sV\u8499
p114
F0.00011480809110022029
sV\u8f9f
p115
F7.175505693763768e-06
sV\u5384
p116
F2.1526517081291305e-05
sV\u5ca9
p117
F2.1526517081291305e-05
sV\u67af
p118
F0.00010045707971269275
sV\u60dc
p119
F0.00021526517081291304
sV\u6930
p120
F7.175505693763768e-06
sV\u8db3
p121
F0.00035159977899442465
sV\u4eb5
p122
F2.8702022775055073e-05
sV\u4f34
p123
F0.00011480809110022029
sV\u73b7
p124
F7.175505693763768e-06
sV\u5988
p125
F0.0002439671935879681
sV\u7538
p126
F5.7404045550110146e-05
sV\u79bb
p127
F0.0005812159611948652
sV\u7b3c
p128
F0.00011480809110022029
sV\u6e34
p129
F0.00012198359679398405
sV\u80c1
p130
F2.1526517081291305e-05
sV\u6846
p131
F1.4351011387527537e-05
sV\u6cc9
p132
F4.305303416258261e-05
sV\u51cb
p133
F7.175505693763768e-06
sV\u72cd
p134
F2.8702022775055073e-05
sV\u7ed5
p135
F0.00013633460818151158
sV\u865a
p136
F0.00022244067650667681
sV\u8fdf
p137
F0.00018656314803785796
sV\u6c11
p138
F0.00012198359679398405
sV\u7262
p139
F0.00010763258540645652
sV\u9897
p140
F8.610606832516522e-05
sV\u62ed
p141
F2.1526517081291305e-05
sV\u68f1
p142
F2.1526517081291305e-05
sV\u8df3
p143
F0.00035159977899442465
sV\u53f7
p144
F0.00017221213665033044
sV\u5076
p145
F8.610606832516522e-05
sV\u5578
p146
F8.610606832516522e-05
sV\u59fb
p147
F4.305303416258261e-05
sV\u5fff
p148
F8.610606832516522e-05
sV\u8001
p149
F0.0016934193437282492
sV\u8180
p150
F4.305303416258261e-05
sV\u8282
p151
F0.00022961618220044059
sV\u6784
p152
F5.0228539856346375e-05
sV\u6886
p153
F1.4351011387527537e-05
sV\u6d88
p154
F0.0003659507903819522
sV\u538c
p155
F0.00023679168789420436
sV\u5a92
p156
F7.175505693763768e-06
sV\u5e15
p157
F2.8702022775055073e-05
sV\u8096
p158
F7.175505693763768e-06
sV\u4f1f
p159
F5.0228539856346375e-05
sV\u71a0
p160
F4.305303416258261e-05
sV\u9523
p161
F7.175505693763768e-06
sV\u3000
p162
F0.00012915910248774784
sV\u60c6
p163
F7.175505693763768e-06
sV\u4e1d
p164
F0.00035159977899442465
sV\u612b
p165
F1.4351011387527537e-05
sV\u7eaa
p166
F9.328157401892898e-05
sV\u63ac
p167
F2.1526517081291305e-05
sV\u672f
p168
F0.00010045707971269275
sV\u8f9c
p169
F3.587752846881884e-05
sV\u8e35
p170
F2.1526517081291305e-05
sV\u5439
p171
F0.00025831820497549567
sV\u7a3d
p172
F4.305303416258261e-05
sV\uff3f
p173
F7.175505693763768e-06
sV\u7cbe
p174
F0.00043770584731958986
sVA
p175
F0.00012915910248774784
sV\u81c0
p176
F7.175505693763768e-06
sV\u62c2
p177
F6.457955124387392e-05
sV\u67c4
p178
F1.4351011387527537e-05
sV\u6b47
p179
F5.0228539856346375e-05
sV\u88c6
p180
F1.4351011387527537e-05
sV\u6c49
p181
F0.0001793876423440942
sV\u73cd
p182
F0.00011480809110022029
sV\u914b
p183
F7.175505693763768e-06
sV\u4eca
p184
F0.0005596894441135739
sV\u524d
p185
F0.0013489950704275884
sV\u53cc
p186
F0.0005022853985634638
sV\u574f
p187
F0.00038747730746324345
sV\u5851
p188
F4.305303416258261e-05
sV\u59d0
p189
F0.00022244067650667681
sV\u5e55
p190
F0.00010045707971269275
sV\u80d6
p191
F5.7404045550110146e-05
sV\u6cde
p192
F1.4351011387527537e-05
sV\u51e0
p193
F0.0013131175419587695
sV\u9563
p194
F7.175505693763768e-06
sV\u5de8
p195
F0.00017221213665033044
sV\u7eea
p196
F5.0228539856346375e-05
sV\u626d
p197
F0.00013633460818151158
sV\u676f
p198
F1.4351011387527537e-05
sV\u51a0
p199
F2.1526517081291305e-05
sV\u8d73
p200
F2.8702022775055073e-05
sV\u5377
p201
F0.0008108321433953058
sV\u99a8
p202
F4.305303416258261e-05
sV\u56fa
p203
F0.00018656314803785796
sV\u5bfc
p204
F0.0003444242733006609
sV\u9f7f
p205
F0.00011480809110022029
sV\u5e54
p206
F7.175505693763768e-06
sV\u8102
p207
F3.587752846881884e-05
sV\u62d7
p208
F3.587752846881884e-05
sV\u8f89
p209
F5.7404045550110146e-05
sV\u4e08
p210
F0.00013633460818151158
sV\u518d
p211
F0.0011696074280834942
sV\u8f83
p212
F5.0228539856346375e-05
sV\u970e
p213
F5.0228539856346375e-05
sV\u5e93
p214
F7.175505693763768e-05
sV\u5c14
p215
F0.00012198359679398405
sV\u6316
p216
F5.0228539856346375e-05
sV\u70ae
p217
F3.587752846881884e-05
sV\u6c9f
p218
F7.175505693763768e-06
sV\u4f1e
p219
F7.175505693763768e-06
sV\u56a3
p220
F2.1526517081291305e-05
sV\u98a7
p221
F1.4351011387527537e-05
sV\u7b26
p222
F6.457955124387392e-05
sV\u62ab
p223
F4.305303416258261e-05
sV\u7206
p224
F6.457955124387392e-05
sV\u4eb2
p225
F0.0027625696920990507
sV\u6db5
p226
F2.1526517081291305e-05
sV\u6c34
p227
F0.0007893056263140145
sV\u7638
p228
F7.175505693763768e-06
sV\u9f3e
p229
F7.175505693763768e-06
sV\u6240
p230
F0.0009973952914331637
sV\u65c5
p231
F5.7404045550110146e-05
sV\u6444
p232
F1.4351011387527537e-05
sV\u4e48
p233
F0.0027410431750177593
sV\u6d4a
p234
F1.4351011387527537e-05
sV\u91cd
p235
F0.0007964811320077782
sV\u504c
p236
F2.1526517081291305e-05
sV\u574e
p237
F6.457955124387392e-05
sV\u7ed3
p238
F0.0004879343871759362
sV\u4e0e
p239
F0.0009543422572705811
sV\u8d3b
p240
F1.4351011387527537e-05
sV\u9664
p241
F0.00033007326191313333
sV\u6291
p242
F9.328157401892898e-05
sV\u5162
p243
F1.4351011387527537e-05
sV\u5b66
p244
F0.0007319015807639044
sV\u4e3d
p245
F0.00023679168789420436
sV\u81ed
p246
F2.8702022775055073e-05
sVl
p247
F0.00022961618220044059
sV\u8bf1
p248
F2.1526517081291305e-05
sV\u9012
p249
F0.00015068561956903912
sV\u8df5
p250
F7.175505693763768e-06
sV\u57f9
p251
F3.587752846881884e-05
sV\u79fd
p252
F2.8702022775055073e-05
sV\u6301
p253
F0.0001578611252628029
sV\u6280
p254
F5.7404045550110146e-05
sV\u5f6a
p255
F7.175505693763768e-06
sV\u6807
p256
F6.457955124387392e-05
sV\u6b86
p257
F7.175505693763768e-06
sV\u6f09
p258
F4.305303416258261e-05
sV\u4e88
p259
F4.305303416258261e-05
sV\u8d8a
p260
F0.00045923236440088117
sV\u778e
p261
F5.7404045550110146e-05
sV\u7b11
p262
F0.0014279256330589898
sV\u5992
p263
F3.587752846881884e-05
sV\u5c94
p264
F6.457955124387392e-05
sV\u8017
p265
F3.587752846881884e-05
sV\u6396
p266
F1.4351011387527537e-05
sV\u8f9e
p267
F8.610606832516522e-05
sV\u5321
p268
F7.175505693763768e-06
sV\u52a0
p269
F0.00038747730746324345
sV\u7f29
p270
F0.0001578611252628029
sV\u60ac
p271
F1.4351011387527537e-05
sV\u8d35
p272
F0.00014351011387527535
sV\u7a3b
p273
F1.4351011387527537e-05
sV\u5c3f
p274
F2.1526517081291305e-05
sV\u6643
p275
F0.00012915910248774784
sV\u61c2
p276
F0.00027266921636302316
sV\u6545
p277
F0.00021526517081291304
sV\u84c4
p278
F7.175505693763768e-05
sV\u8bc6
p279
F0.0003803018017694797
sV\u514d
p280
F7.175505693763768e-05
sV\u4f69
p281
F4.305303416258261e-05
sV\u57ce
p282
F9.328157401892898e-05
sV\u7b51
p283
F7.175505693763768e-06
sV\u79d2
p284
F4.305303416258261e-05
sV\u63d6
p285
F7.175505693763768e-06
sV\u8759
p286
F7.175505693763768e-06
sV\u6c5f
p287
F0.0001793876423440942
sV\u8fde
p288
F0.0010189218085144551
sV\u5361
p289
F6.457955124387392e-05
sV\u72e0
p290
F0.0002511426992817319
sV\u7565
p291
F5.0228539856346375e-05
sV\u94e4
p292
F7.175505693763768e-06
sV\u7f69
p293
F7.893056263140145e-05
sV\u626b
p294
F7.893056263140145e-05
sV\u60ec
p295
F7.175505693763768e-06
sV7
p296
F1.4351011387527537e-05
sV\u4e73
p297
F2.8702022775055073e-05
sV\u5077
p298
F7.893056263140145e-05
sV\u53f6
p299
F0.00012198359679398405
sV\u7779
p300
F3.587752846881884e-05
sV\u76f8
p301
F0.0013489950704275884
sV\u95fa
p302
F3.587752846881884e-05
sV\u597d
p303
F0.002468373958654736
sV\u6002
p304
F1.4351011387527537e-05
sV\u6485
p305
F1.4351011387527537e-05
sV\u5080
p306
F7.175505693763768e-06
sV\u4e89
p307
F0.00015068561956903912
sV\u68ad
p308
F2.1526517081291305e-05
sV\u738b
p309
F7.893056263140145e-05
sV\u8c0a
p310
F7.893056263140145e-05
sV\u508d
p311
F4.305303416258261e-05
sV\u7403
p312
F3.587752846881884e-05
sV\u758f
p313
F0.00017221213665033044
sV\u560e
p314
F1.4351011387527537e-05
sV\u9a91
p315
F5.0228539856346375e-05
sV\u7c95
p316
F7.175505693763768e-06
sV\u6216
p317
F0.00033007326191313333
sV\u8718
p318
F7.175505693763768e-06
sV\u8d9f
p319
F8.610606832516522e-05
sV\u8e1e
p320
F7.175505693763768e-06
sV\u52a1
p321
F3.587752846881884e-05
sV\u5320
p322
F1.4351011387527537e-05
sV\u9022
p323
F0.00010045707971269275
sV\u94a5
p324
F7.175505693763768e-06
sV\u5524
p325
F0.00010763258540645652
sV\u7f28
p326
F7.175505693763768e-06
sV\u83ab
p327
F4.305303416258261e-05
sV\u6986
p328
F5.0228539856346375e-05
sV\u65af
p329
F6.457955124387392e-05
sV\u8bf8
p330
F0.00011480809110022029
sV\u8d34
p331
F0.00015068561956903912
sV\u51b7
p332
F0.0009184647288017623
sV\u5236
p333
F0.00013633460818151158
sV\u7738
p334
F7.175505693763768e-06
sV\u793c
p335
F0.00013633460818151158
sV\u7267
p336
F1.4351011387527537e-05
sV\u9f8a
p337
F7.175505693763768e-06
sV\u64c5
p338
F4.305303416258261e-05
sV\u53cb
p339
F0.0005166364099509913
sV\u714c
p340
F5.0228539856346375e-05
sV\u564e
p341
F2.8702022775055073e-05
sV\u5b50
p342
F0.0030208878970745465
sV\u7cd5
p343
F3.587752846881884e-05
sV\u86d9
p344
F7.175505693763768e-06
sV\u6bdb
p345
F0.0011193788882271477
sV\u73bb
p346
F6.457955124387392e-05
sV\u8ddf
p347
F0.0012485379907148956
sV\u4e5e
p348
F7.175505693763768e-06
sV\u72e1
p349
F4.305303416258261e-05
sV\u5360
p350
F0.00014351011387527535
sV\u54e5
p351
F0.00010045707971269275
sV\u79e7
p352
F1.4351011387527537e-05
sV\u7ee9
p353
F1.4351011387527537e-05
sV\u60ed
p354
F3.587752846881884e-05
sV\u8c13
p355
F4.305303416258261e-05
sV\u666e
p356
F3.587752846881884e-05
sV\u8d74
p357
F1.4351011387527537e-05
sV\u76f9
p358
F7.175505693763768e-06
sV\u7f15
p359
F5.0228539856346375e-05
sV\u5bfb
p360
F0.00022244067650667681
sV\u997c
p361
F3.587752846881884e-05
sV\u4e94
p362
F0.00032289775621936956
sV\u6380
p363
F7.175505693763768e-05
sV\u6405
p364
F7.893056263140145e-05
sV\u8584
p365
F0.0003372487676068971
sV\u4e09
p366
F0.0006673220295200304
sV\u8f88
p367
F0.00016503663095656667
sV\u500d
p368
F5.7404045550110146e-05
sV\u568e
p369
F4.305303416258261e-05
sV\u5f13
p370
F2.8702022775055073e-05
sV\u6296
p371
F7.175505693763768e-05
sV\u6619
p372
F7.175505693763768e-06
sV\u699c
p373
F7.175505693763768e-06
sV\u8d1f
p374
F9.328157401892898e-05
sV\u5723
p375
F0.00010763258540645652
sV\u90a2
p376
F4.305303416258261e-05
sV\u75a4
p377
F8.610606832516522e-05
sV\u5927
p378
F0.004563621621233757
sV\u632b
p379
F6.457955124387392e-05
sV\u7caa
p380
F7.175505693763768e-06
sV-
p381
F0.001076325854064565
sV\u61ac
p382
F1.4351011387527537e-05
sV\u652f
p383
F0.0002511426992817319
sV\u66ae
p384
F5.7404045550110146e-05
sV\u6a31
p385
F1.4351011387527537e-05
sV\u8bb0
p386
F0.0004951098928697
sV\u8db4
p387
F2.8702022775055073e-05
sV\u72b6
p388
F0.00012915910248774784
sV\u8bf4
p389
F0.00588391466888629
sV\u6241
p390
F7.893056263140145e-05
sV\u6743
p391
F0.00021526517081291304
sV\u80a0
p392
F6.457955124387392e-05
sV\u4e49
p393
F0.00011480809110022029
sV\u8fc8
p394
F5.0228539856346375e-05
sV\u6cca
p395
F5.0228539856346375e-05
sV\u904d
p396
F0.00021526517081291304
sV\u91cc
p397
F0.003214626550806168
sV\u754f
p398
F7.893056263140145e-05
sV\u76ce
p399
F7.175505693763768e-06
sV\u5bd0
p400
F7.175505693763768e-06
sV\u5f53
p401
F0.0018082274348284696
sV\u5c55
p402
F0.00012198359679398405
sV\u9c81
p403
F4.305303416258261e-05
sV\u62d6
p404
F0.00018656314803785796
sV\u6ede
p405
F2.1526517081291305e-05
sV\u53e0
p406
F5.7404045550110146e-05
sV\u7763
p407
F1.4351011387527537e-05
sV\u5ae6
p408
F7.175505693763768e-06
sVm
p409
F0.00011480809110022029
sV\u86ee
p410
F4.305303416258261e-05
sV\u6a71
p411
F1.4351011387527537e-05
sV\u4f73
p412
F1.4351011387527537e-05
sV\u5177
p413
F0.00016503663095656667
sV\u94fa
p414
F0.0003444242733006609
sV\u987d
p415
F5.0228539856346375e-05
sV\u6400
p416
F3.587752846881884e-05
sV\u8083
p417
F9.328157401892898e-05
sV\u8702
p418
F7.175505693763768e-06
sV\u9600
p419
F7.175505693763768e-06
sV\u4e22
p420
F7.893056263140145e-05
sV\u548b
p421
F2.8702022775055073e-05
sV\u8292
p422
F1.4351011387527537e-05
sV\u82ac
p423
F3.587752846881884e-05
sV\u5893
p424
F0.00012915910248774784
sV\u6697
p425
F0.0003803018017694797
sV\u6c9b
p426
F2.8702022775055073e-05
sV\u631a
p427
F2.8702022775055073e-05
sV\u4f9d
p428
F0.0002009141594253855
sV\u4e1c
p429
F0.0005166364099509913
sV\u75a1
p430
F7.175505693763768e-06
sV\u90a3
p431
F0.009787389766293779
sV\u53a5
p432
F7.175505693763768e-06
sV\u5224
p433
F2.8702022775055073e-05
sV\u5ea7
p434
F0.00012915910248774784
sV\u59a9
p435
F1.4351011387527537e-05
sV\u68b3
p436
F3.587752846881884e-05
sV\u6bb5
p437
F0.00025831820497549567
sV\u56b7
p438
F5.7404045550110146e-05
sV\u9038
p439
F3.587752846881884e-05
sV\u533a
p440
F0.00022961618220044059
sV\u7fbd
p441
F1.4351011387527537e-05
sV\u7abf
p442
F7.175505693763768e-06
sV\u793e
p443
F0.00010045707971269275
sV\u65c1
p444
F0.00019373865373162173
sV\u80c3
p445
F7.893056263140145e-05
sV\u6742
p446
F0.0002511426992817319
sV\u7237
p447
F4.305303416258261e-05
sV\u4ec7
p448
F6.457955124387392e-05
sV\u6d46
p449
F1.4351011387527537e-05
sV\u89c9
p450
F0.0022100557536792404
sV\u6848
p451
F4.305303416258261e-05
sV\u964c
p452
F0.00010763258540645652
sV\u714e
p453
F3.587752846881884e-05
sV\u5c50
p454
F7.175505693763768e-06
sV\u98d3
p455
F1.4351011387527537e-05
sV\u5f52
p456
F0.00022961618220044059
sV\u64b8
p457
F1.4351011387527537e-05
sVX
p458
F2.1526517081291305e-05
sV\u6cdb
p459
F0.00010045707971269275
sV\u835a
p460
F1.4351011387527537e-05
sV\u8fdd
p461
F6.457955124387392e-05
sV\u4e5c
p462
F7.175505693763768e-06
sV\u695e
p463
F0.00012915910248774784
sV\u9762
p464
F0.0016790683323407217
sV\u53e5
p465
F0.00046640787009464494
sV\u7ee7
p466
F8.610606832516522e-05
sV\u79e9
p467
F1.4351011387527537e-05
sV\u62ef
p468
F7.893056263140145e-05
sV\u816e
p469
F4.305303416258261e-05
sV\u6df1
p470
F0.001076325854064565
sV\u8bf5
p471
F1.4351011387527537e-05
sV\u96f7
p472
F0.00010763258540645652
sV\u9576
p473
F4.305303416258261e-05
sV\u51f9
p474
F1.4351011387527537e-05
sV\u7078
p475
F7.175505693763768e-06
sV\u7cfb
p476
F0.0002009141594253855
sV\u5ffd
p477
F0.0004735833757884087
sV\u5e7c
p478
F0.00010045707971269275
sV\u7aff
p479
F2.8702022775055073e-05
sV\u8003
p480
F0.00012915910248774784
sV\u6284
p481
F3.587752846881884e-05
sV\u4e07
p482
F0.0008180076490890695
sV\u6b8a
p483
F4.305303416258261e-05
sV\u970d
p484
F2.8702022775055073e-05
sV\u775b
p485
F0.00027266921636302316
sV\u5f92
p486
F5.0228539856346375e-05
sV\u8098
p487
F4.305303416258261e-05
sV\u8c1b
p488
F1.4351011387527537e-05
sV\u6e9c
p489
F4.305303416258261e-05
sV\u82f1
p490
F0.00010045707971269275
sV\u57a2
p491
F2.1526517081291305e-05
sV\u5e27
p492
F2.1526517081291305e-05
sV\u5929
p493
F0.0025401290155923737
sV\u58a8
p494
F2.8702022775055073e-05
sV\u5baa
p495
F7.175505693763768e-06
sV\u97f3
p496
F0.0004951098928697
sV\u8d31
p497
F2.1526517081291305e-05
sV\u73ca
p498
F2.8702022775055073e-05
sV\u70b8
p499
F0.00010045707971269275
sV\u604b
p500
F0.0007462525921514318
sV\u7a3f
p501
F2.8702022775055073e-05
sV\u79be
p502
F2.1526517081291305e-05
sV\u6043
p503
F1.4351011387527537e-05
sV\u62c4
p504
F1.4351011387527537e-05
sV\u6dc6
p505
F2.1526517081291305e-05
sV\u8bca
p506
F2.8702022775055073e-05
sV\u574d
p507
F2.1526517081291305e-05
sV\u91ce
p508
F0.0002439671935879681
sV\u5b55
p509
F3.587752846881884e-05
sV\u4f5d
p510
F2.8702022775055073e-05
sV\u9063
p511
F7.175505693763768e-06
sV\u77e2
p512
F2.8702022775055073e-05
sV\u52e4
p513
F8.610606832516522e-05
sV\u5de6
p514
F0.00010045707971269275
sV\u78e8
p515
F0.0001578611252628029
sV\u826f
p516
F0.0001578611252628029
sV\u6cf0
p517
F0.00010045707971269275
sV\u8bbf
p518
F1.4351011387527537e-05
sV\u9677
p519
F0.00014351011387527535
sV\u7f55
p520
F2.1526517081291305e-05
sV\u7c7b
p521
F0.00019373865373162173
sV\u867e
p522
F7.175505693763768e-06
sV\u7a7f
p523
F0.00035159977899442465
sV\u6ed4
p524
F4.305303416258261e-05
sV\u6500
p525
F5.7404045550110146e-05
sV\u6602
p526
F7.175505693763768e-05
sV\u8304
p527
F1.4351011387527537e-05
sV\u80af
p528
F0.00020808966511914927
sV\u6797
p529
F0.0009615177629643449
sV\u6d9b
p530
F0.00014351011387527535
sV\u621a
p531
F3.587752846881884e-05
sV\u58a9
p532
F2.8702022775055073e-05
sV\u672c
p533
F0.0011193788882271477
sV.
p534
F0.00022961618220044059
sV\u4e32
p535
F5.7404045550110146e-05
sV\u70b9
p536
F0.0019876150771725638
sV\u523a
p537
F0.00017221213665033044
sV\u7ebd
p538
F1.4351011387527537e-05
sV\u5bbf
p539
F0.000401828318850771
sV\u62c5
p540
F0.00020808966511914927
sV\u8fc7
p541
F0.003315083630518861
sV\u8c46
p542
F0.00017221213665033044
sV\u68c9
p543
F0.0002654937106692594
sV\u504e
p544
F2.8702022775055073e-05
sV\u59d3
p545
F5.0228539856346375e-05
sV\u7b54
p546
F0.00020808966511914927
sV\u7238
p547
F1.4351011387527537e-05
sV\u8ddb
p548
F1.4351011387527537e-05
sV\u6f5c
p549
F4.305303416258261e-05
sV\u5662
p550
F5.7404045550110146e-05
sV\u5364
p551
F7.175505693763768e-06
sV\u5fe7
p552
F0.00027984472205678693
sV\u7968
p553
F0.00016503663095656667
sV\u5a6a
p554
F1.4351011387527537e-05
sVn
p555
F0.00011480809110022029
sV\u6cf1
p556
F1.4351011387527537e-05
sV\u8d70
p557
F0.0018584559746848159
sV\u8e72
p558
F8.610606832516522e-05
sV\u70f9
p559
F1.4351011387527537e-05
sV\u5178
p560
F1.4351011387527537e-05
sV\u727a
p561
F3.587752846881884e-05
sV\u7efd
p562
F3.587752846881884e-05
sV\u5f7c
p563
F6.457955124387392e-05
sV\u5bff
p564
F1.4351011387527537e-05
sV\u987e
p565
F0.0002009141594253855
sV\u6401
p566
F2.1526517081291305e-05
sV\u6682
p567
F5.7404045550110146e-05
sV\u8205
p568
F0.00023679168789420436
sV\u950b
p569
F2.1526517081291305e-05
sV\u8a8a
p570
F7.175505693763768e-06
sV\u708e
p571
F5.7404045550110146e-05
sV\u5c11
p572
F0.0007893056263140145
sV\u6717
p573
F5.7404045550110146e-05
sV\u7ad9
p574
F0.0007247260750701406
sV\u8198
p575
F7.175505693763768e-06
sV\u629a
p576
F0.00011480809110022029
sV\u6e1d
p577
F2.1526517081291305e-05
sV\u6f9c
p578
F2.1526517081291305e-05
sV\u5f27
p579
F2.1526517081291305e-05
sV\u59a8
p580
F7.175505693763768e-06
sV\u652b
p581
F7.175505693763768e-06
sV\u632f
p582
F7.175505693763768e-05
sV\u80ae
p583
F3.587752846881884e-05
sV\u8eb2
p584
F0.00012915910248774784
sV\u6bb4
p585
F7.175505693763768e-06
sV\u7737
p586
F2.1526517081291305e-05
sV\u8c8c
p587
F0.00012198359679398405
sV\u523d
p588
F7.175505693763768e-06
sV\u5e3d
p589
F5.7404045550110146e-05
sV\u78be
p590
F7.175505693763768e-06
sV\u6441
p591
F7.175505693763768e-06
sV\u6f47
p592
F2.1526517081291305e-05
sV\u89c8
p593
F7.175505693763768e-06
sV\u964d
p594
F6.457955124387392e-05
sV\u534f
p595
F3.587752846881884e-05
sV\u90ce
p596
F3.587752846881884e-05
sV\u5c51
p597
F2.8702022775055073e-05
sV\u5953
p598
F1.4351011387527537e-05
sV\u7ed2
p599
F5.7404045550110146e-05
sV\u6059
p600
F7.175505693763768e-06
sV\u8d5b
p601
F7.175505693763768e-06
sV\u4e5d
p602
F9.328157401892898e-05
sV\u8fdc
p603
F0.0011696074280834942
sV\u9163
p604
F2.1526517081291305e-05
sV\u56e2
p605
F0.00016503663095656667
sV\u5265
p606
F5.0228539856346375e-05
sV\u53e4
p607
F0.00014351011387527535
sV\u5ce6
p608
F7.175505693763768e-06
sV\u836f
p609
F0.00017221213665033044
sV\u60ee
p610
F7.175505693763768e-06
sV\u5e7f
p611
F6.457955124387392e-05
sV\u5777
p612
F2.8702022775055073e-05
sV\u74f6
p613
F0.00016503663095656667
sV\u51f8
p614
F5.7404045550110146e-05
sV\u52fa
p615
F2.1526517081291305e-05
sV\u5e7d
p616
F0.00015068561956903912
sV\u7ffc
p617
F3.587752846881884e-05
sV\u6781
p618
F0.00043770584731958986
sV\u6f06
p619
F4.305303416258261e-05
sV\u6b89
p620
F7.175505693763768e-06
sV\u540c
p621
F0.0011983094508585493
sV\u730e
p622
F5.7404045550110146e-05
sV\u5e10
p623
F0.0004233548359320623
sV\u7814
p624
F4.305303416258261e-05
sV\u6218
p625
F0.0002439671935879681
sV\u4e9b
p626
F0.001578611252628029
sV\u811a
p627
F0.0005525139384198101
sV\u6d9d
p628
F7.175505693763768e-06
sV\u8c1c
p629
F3.587752846881884e-05
sV\u7620
p630
F2.1526517081291305e-05
sV\u52a3
p631
F5.7404045550110146e-05
sV\u51a5
p632
F2.8702022775055073e-05
sV\u5f26
p633
F2.1526517081291305e-05
sV\u7ba9
p634
F7.175505693763768e-06
sV\u592a
p635
F0.0007031995579888493
sV\u65ad
p636
F0.00044488135301335363
sV\u642c
p637
F5.7404045550110146e-05
sV\u60af
p638
F0.00011480809110022029
sV\u8fb1
p639
F6.457955124387392e-05
sV\u4e30
p640
F0.00010045707971269275
sV\u60b2
p641
F0.00045923236440088117
sV\u7736
p642
F5.0228539856346375e-05
sV\u5238
p643
F7.175505693763768e-06
sV\u9ebb
p644
F0.00020808966511914927
sV\u5c3c
p645
F1.4351011387527537e-05
sV\u8e0a
p646
F7.175505693763768e-06
sVD
p647
F0.00011480809110022029
sV\u4f46
p648
F0.0011480809110022028
sV\u8bc9
p649
F0.00022244067650667681
sV\u94f2
p650
F1.4351011387527537e-05
sV\u75cd
p651
F7.175505693763768e-06
sV\u50cf
p652
F0.0025473045212861378
sV\u534e
p653
F0.00010045707971269275
sV\u5fd1
p654
F2.8702022775055073e-05
sV\u9ad3
p655
F7.175505693763768e-06
sV\u6756
p656
F7.175505693763768e-06
sV\u6258
p657
F0.00016503663095656667
sV\u8ddd
p658
F2.1526517081291305e-05
sVd
p659
F0.00011480809110022029
sV\u7891
p660
F2.1526517081291305e-05
sV\u71e5
p661
F7.893056263140145e-05
sV\u6020
p662
F2.1526517081291305e-05
sV\u6f66
p663
F2.1526517081291305e-05
sV\u846c
p664
F0.00012198359679398405
sV\u80ef
p665
F2.1526517081291305e-05
sV\u636e
p666
F0.00017221213665033044
sV\u4ff1
p667
F2.8702022775055073e-05
sV\u4e70
p668
F0.00018656314803785796
sV\u74f7
p669
F4.305303416258261e-05
sV\u9776
p670
F7.175505693763768e-06
sV\u53f9
p671
F0.00010045707971269275
sV\u9c7c
p672
F0.00025831820497549567
sV\u7b7e
p673
F1.4351011387527537e-05
sV\u8680
p674
F4.305303416258261e-05
sV\u6084
p675
F0.00012915910248774784
sV\u8f86
p676
F4.305303416258261e-05
sV\u548c
p677
F0.0011480809110022028
sV\u500f
p678
F4.305303416258261e-05
sV\u5a13
p679
F2.8702022775055073e-05
sV\u5915
p680
F3.587752846881884e-05
sV\u60ef
p681
F0.00014351011387527535
sV\u6298
p682
F0.00016503663095656667
sV\u4e1b
p683
F5.0228539856346375e-05
sV\u8d1d
p684
F1.4351011387527537e-05
sV\u9aa8
p685
F0.0003157222505256058
sV\u64ac
p686
F2.1526517081291305e-05
sV\u602f
p687
F6.457955124387392e-05
sV\u63ae
p688
F1.4351011387527537e-05
sV\u6f31
p689
F1.4351011387527537e-05
sV\u6db2
p690
F5.7404045550110146e-05
sV\u5339
p691
F0.00010763258540645652
sV\u5d3d
p692
F1.4351011387527537e-05
sV\u729f
p693
F7.175505693763768e-06
sV\u6c47
p694
F2.8702022775055073e-05
sV\u6b49
p695
F4.305303416258261e-05
sV\u964b
p696
F7.175505693763768e-05
sV\u504f
p697
F0.00020808966511914927
sV\u7f51
p698
F2.8702022775055073e-05
sV\u5955
p699
F2.8702022775055073e-05
sV\u8457
p700
F3.587752846881884e-05
sV\u62d8
p701
F4.305303416258261e-05
sV\u9ece
p702
F3.587752846881884e-05
sV\u8bde
p703
F3.587752846881884e-05
sV\u5761
p704
F5.0228539856346375e-05
sV\u56e0
p705
F0.001112203382533384
sV\u9165
p706
F2.1526517081291305e-05
sV\u70e4
p707
F7.893056263140145e-05
sV\u5b69
p708
F0.00215265170812913
sV\u866b
p709
F5.0228539856346375e-05
sV\u84ec
p710
F2.8702022775055073e-05
sV\u606f
p711
F0.0004735833757884087
sV\u4ef0
p712
F0.00015068561956903912
sV\u5477
p713
F1.4351011387527537e-05
sV\u72f8
p714
F2.1526517081291305e-05
sV\u5e7b
p715
F6.457955124387392e-05
sV\u51fa
p716
F0.004075687234057821
sV\u987f
p717
F6.457955124387392e-05
sV\u6700
p718
F0.0008754116946391797
sV\u6402
p719
F4.305303416258261e-05
sV\u8a89
p720
F2.1526517081291305e-05
sV\u978b
p721
F0.00020808966511914927
sV\u718f
p722
F4.305303416258261e-05
sV\u6597
p723
F6.457955124387392e-05
sV\u4fd8
p724
F2.1526517081291305e-05
sV\u8f9b
p725
F0.0001578611252628029
sV\u7720
p726
F9.328157401892898e-05
sV\u7422
p727
F7.175505693763768e-06
sV\u9e26
p728
F2.1526517081291305e-05
sV\u7b28
p729
F0.00010045707971269275
sV\u67ab
p730
F7.175505693763768e-06
sV\u582a
p731
F9.328157401892898e-05
sV\u64ad
p732
F1.4351011387527537e-05
sV\u4f30
p733
F1.4351011387527537e-05
sV\u8bb3
p734
F2.1526517081291305e-05
sV\u68b5
p735
F7.175505693763768e-06
sV\u55b7
p736
F9.328157401892898e-05
sV\u5636
p737
F0.00010045707971269275
sV\u72b9
p738
F0.00014351011387527535
sV\u7f13
p739
F0.0001578611252628029
sV\u6740
p740
F0.00014351011387527535
sV\u598a
p741
F7.175505693763768e-06
sV\u60c5
p742
F0.002382267890329571
sV\u83b7
p743
F0.00013633460818151158
sV\u57cb
p744
F0.00015068561956903912
sV\u54cd
p745
F0.0004233548359320623
sV\u754c
p746
F0.00022244067650667681
sV\u91cf
p747
F0.00018656314803785796
sV\u7ed1
p748
F4.305303416258261e-05
sV\u9f50
p749
F7.175505693763768e-05
sV\u7bd3
p750
F7.175505693763768e-06
sV\u78d5
p751
F3.587752846881884e-05
sV\u900f
p752
F0.0002870202277505507
sV\u6656
p753
F7.175505693763768e-06
sV\u62d9
p754
F3.587752846881884e-05
sV\u8fdb
p755
F0.0008897627060267073
sV\u805a
p756
F8.610606832516522e-05
sV\u59bb
p757
F0.00012198359679398405
sV\u6de4
p758
F7.175505693763768e-06
sV\u9760
p759
F0.0002870202277505507
sV\u53e3
p760
F0.0013705215875088796
sV\u5462
p761
F0.00040900382454453477
sV\u5de7
p762
F9.328157401892898e-05
sV\u5ae9
p763
F7.893056263140145e-05
sV\u62e6
p764
F3.587752846881884e-05
sV\u656c
p765
F0.00012915910248774784
sV\u626e
p766
F7.893056263140145e-05
sV\u8f70
p767
F4.305303416258261e-05
sV\u6c72
p768
F7.175505693763768e-06
sV\u68f5
p769
F8.610606832516522e-05
sV\u95f7
p770
F8.610606832516522e-05
sV\u9676
p771
F3.587752846881884e-05
sV\u5378
p772
F5.0228539856346375e-05
sV\u7ffb
p773
F0.00027266921636302316
sV\u5c3e
p774
F7.175505693763768e-05
sV\u59ff
p775
F5.0228539856346375e-05
sV\u9a7e
p776
F5.7404045550110146e-05
sV\u70c1
p777
F5.0228539856346375e-05
sV\u8303
p778
F3.587752846881884e-05
sV\u6482
p779
F7.175505693763768e-06
sV\u6005
p780
F6.457955124387392e-05
sV\u4e86
p781
F0.011545388661265903
sV\u770b
p782
F0.0019517375487037448
sV\u540d
p783
F0.00035159977899442465
sV\u5f90
p784
F8.610606832516522e-05
sV\u9b13
p785
F2.8702022775055073e-05
sV\u7c92
p786
F2.8702022775055073e-05
sV\u5815
p787
F7.175505693763768e-06
sV\u6696
p788
F0.00021526517081291304
sV\u6398
p789
F5.0228539856346375e-05
sV\u809a
p790
F9.328157401892898e-05
sV\u57a0
p791
F7.175505693763768e-06
sV\u94a2
p792
F5.0228539856346375e-05
sV\u51a4
p793
F6.457955124387392e-05
sV\u7d27
p794
F0.0007821301206202507
sV\u9ea6
p795
F1.4351011387527537e-05
sV\u672b
p796
F0.00010045707971269275
sV\u642d
p797
F0.0002009141594253855
sV\u812f
p798
F7.175505693763768e-06
sV\u8e31
p799
F4.305303416258261e-05
sV\u8fb0
p800
F1.4351011387527537e-05
sV\u7537
p801
F0.0016288397924843754
sV\u96b6
p802
F3.587752846881884e-05
sV\u5239
p803
F0.00012915910248774784
sV\u9f3b
p804
F0.00021526517081291304
sV\u5c3d
p805
F0.000401828318850771
sV\u75f4
p806
F0.00011480809110022029
sV\u64c2
p807
F7.893056263140145e-05
sV\u6d47
p808
F1.4351011387527537e-05
sV\u4ec6
p809
F2.1526517081291305e-05
sV\u8bc8
p810
F2.8702022775055073e-05
sV\u5fd0
p811
F2.8702022775055073e-05
sV\u7855
p812
F5.0228539856346375e-05
sV\u59d4
p813
F6.457955124387392e-05
sV\u4f5b
p814
F0.0011911339451647854
sV\u60da
p815
F6.457955124387392e-05
sV\u895f
p816
F1.4351011387527537e-05
sV\u9661
p817
F2.8702022775055073e-05
sV\u9065
p818
F0.00013633460818151158
sV\u51e4
p819
F7.175505693763768e-06
sV\u4e71
p820
F0.00043770584731958986
sV\u8ff0
p821
F3.587752846881884e-05
sV\u5577
p822
F7.175505693763768e-06
sV\u96f6
p823
F0.00014351011387527535
sV\u7279
p824
F0.0003157222505256058
sV\u53f8
p825
F0.0001793876423440942
sV\u5f7b
p826
F0.00019373865373162173
sV\u56fe
p827
F0.00015068561956903912
sV\u997f
p828
F7.175505693763768e-05
sV\u8981
p829
F0.002123949685354075
sV\u6c83
p830
F7.175505693763768e-06
sV\u8f85
p831
F7.175505693763768e-06
sV\u8106
p832
F0.00020808966511914927
sV\u7b8d
p833
F7.175505693763768e-06
sV\u5e8f
p834
F0.00010763258540645652
sV\u9010
p835
F4.305303416258261e-05
sV\u9493
p836
F7.175505693763768e-06
sV\u9614
p837
F4.305303416258261e-05
sV\u4f1a
p838
F0.003164398010949822
sV\u665a
p839
F0.0005525139384198101
sV\u7126
p840
F0.00013633460818151158
sV\u88ab
p841
F0.0011480809110022028
sV\u8bad
p842
F8.610606832516522e-05
sV\u8eaf
p843
F8.610606832516522e-05
sV\u8d2e
p844
F0.00010763258540645652
sV0
p845
F5.7404045550110146e-05
sV\u5c38
p846
F7.175505693763768e-05
sV\u50bb
p847
F5.0228539856346375e-05
sV\u7f3a
p848
F0.0003444242733006609
sV\u553e
p849
F1.4351011387527537e-05
sV\u89c1
p850
F0.0015570847355467377
sV\u8840
p851
F0.0004735833757884087
sV\u8fc5
p852
F5.0228539856346375e-05
sV\u8e44
p853
F2.8702022775055073e-05
sV\u62c7
p854
F7.175505693763768e-06
sV\u8146
p855
F2.8702022775055073e-05
sV\u85c9
p856
F4.305303416258261e-05
sV\u7ecf
p857
F0.0007390770864576682
sV\u91d1
p858
F6.457955124387392e-05
sV\u80db
p859
F7.175505693763768e-06
sV\u6350
p860
F2.1526517081291305e-05
sV\u655e
p861
F7.893056263140145e-05
sV\u9e64
p862
F1.4351011387527537e-05
sV\u7410
p863
F5.0228539856346375e-05
sV\u95e9
p864
F2.1526517081291305e-05
sV\u5468
p865
F0.0003157222505256058
sV\u8bed
p866
F0.00022961618220044059
sV\u6d6e
p867
F6.457955124387392e-05
sVp
p868
F0.00011480809110022029
sV\u6674
p869
F8.610606832516522e-05
sV\u9976
p870
F7.175505693763768e-06
sV\u50fb
p871
F2.1526517081291305e-05
sV\u53fd
p872
F1.4351011387527537e-05
sV\u8c03
p873
F0.0002870202277505507
sV\u9a8c
p874
F9.328157401892898e-05
sV\u9999
p875
F0.00015068561956903912
sV\u5413
p876
F0.00012198359679398405
sV\u9694
p877
F0.00023679168789420436
sV\u829c
p878
F7.175505693763768e-06
sV\u661f
p879
F0.00022244067650667681
sV\u98a0
p880
F0.00010045707971269275
sV\u5ba2
p881
F7.893056263140145e-05
sV\u7f25
p882
F2.1526517081291305e-05
sV\u7ea4
p883
F1.4351011387527537e-05
sV\u7529
p884
F5.7404045550110146e-05
sV\u77aa
p885
F7.893056263140145e-05
sV\u6df3
p886
F1.4351011387527537e-05
sV\u6e2f
p887
F7.175505693763768e-06
sV\u6dae
p888
F1.4351011387527537e-05
sV\u8131
p889
F0.00032289775621936956
sV\u6735
p890
F6.457955124387392e-05
sV\u66b4
p891
F0.00016503663095656667
sV\u903b
p892
F7.175505693763768e-06
sV\u563f
p893
F2.1526517081291305e-05
sV\u75be
p894
F5.0228539856346375e-05
sV\u68c0
p895
F7.175505693763768e-05
sV\u4ec4
p896
F7.175505693763768e-06
sV\u6247
p897
F2.8702022775055073e-05
sV\u7076
p898
F5.7404045550110146e-05
sV\u5acc
p899
F2.8702022775055073e-05
sV\u5151
p900
F2.1526517081291305e-05
sV\u904f
p901
F1.4351011387527537e-05
sV\u7578
p902
F4.305303416258261e-05
sV\u6d59
p903
F2.8702022775055073e-05
sV\u79fb
p904
F0.00013633460818151158
sV\u5267
p905
F0.00019373865373162173
sV\u54e8
p906
F6.457955124387392e-05
sV\u886b
p907
F2.1526517081291305e-05
sV\u6dee
p908
F1.4351011387527537e-05
sV\u8171
p909
F7.175505693763768e-06
sV\u60f0
p910
F2.1526517081291305e-05
sV\u83f2
p911
F2.1526517081291305e-05
sV\u6775
p912
F2.8702022775055073e-05
sV\u66f4
p913
F0.00033007326191313333
sV\u7a77
p914
F3.587752846881884e-05
sV\u72fc
p915
F9.328157401892898e-05
sV\u6881
p916
F2.1526517081291305e-05
sV\u9001
p917
F0.0003157222505256058
sV\u6e85
p918
F1.4351011387527537e-05
sV\u6006
p919
F2.8702022775055073e-05
sV\u998b
p920
F7.175505693763768e-06
sV\u7a8d
p921
F1.4351011387527537e-05
sV\u5212
p922
F0.00018656314803785796
sV\u6816
p923
F1.4351011387527537e-05
sV\u6c99
p924
F0.00010045707971269275
sV\u819b
p925
F2.1526517081291305e-05
sV\u4e1a
p926
F0.0001793876423440942
sV\u829d
p927
F7.175505693763768e-06
sV\u641e
p928
F0.00010045707971269275
sV\u7f24
p929
F7.175505693763768e-06
sV\u5026
p930
F4.305303416258261e-05
sV\u94a9
p931
F2.1526517081291305e-05
sV\u7528
p932
F0.0014422766444465173
sV\u762a
p933
F8.610606832516522e-05
sV\u6734
p934
F8.610606832516522e-05
sV\u7cb9
p935
F7.175505693763768e-06
sV\u51bb
p936
F0.00021526517081291304
sV\u543e
p937
F1.4351011387527537e-05
sV\u88c1
p938
F7.175505693763768e-06
sV\u7761
p939
F0.0002654937106692594
sV\u8dc3
p940
F7.893056263140145e-05
sV\u4ec5
p941
F0.00013633460818151158
sV\u7eb7
p942
F0.00027266921636302316
sV\u83c7
p943
F2.1526517081291305e-05
sV\u8046
p944
F7.175505693763768e-06
sV\u6548
p945
F6.457955124387392e-05
sV\u59cb
p946
F0.0004305303416258261
sV\u5c4e
p947
F1.4351011387527537e-05
sV\u90d1
p948
F0.0012198359679398405
sV\u55d3
p949
F0.00012915910248774784
sV\u8bd7
p950
F4.305303416258261e-05
sV\u8d58
p951
F7.175505693763768e-06
sV\u94bb
p952
F0.00010045707971269275
sV\u645e
p953
F1.4351011387527537e-05
sV\u54e9
p954
F7.175505693763768e-06
sV\u966a
p955
F0.00012198359679398405
sV\u4fef
p956
F5.0228539856346375e-05
sV\u8170
p957
F0.00013633460818151158
sV\u8272
p958
F0.001083501359758329
sV\u8774
p959
F1.4351011387527537e-05
sV\u7bf7
p960
F0.0004305303416258261
sV\u9876
p961
F0.0003157222505256058
sV\u51fb
p962
F0.0001578611252628029
sV\u77ff
p963
F2.1526517081291305e-05
sV\u6e05
p964
F0.0008825872003329435
sV\u6307
p965
F0.0005668649498073376
sV\u8086
p966
F1.4351011387527537e-05
sV\u868a
p967
F7.175505693763768e-06
sV\u7a0d
p968
F6.457955124387392e-05
sV\u5b8c
p969
F0.000401828318850771
sV\u5f0f
p970
F0.0001793876423440942
sV\u7292
p971
F7.175505693763768e-06
sVo
p972
F0.00022961618220044059
sV\u8896
p973
F9.328157401892898e-05
sV\u4e9a
p974
F2.1526517081291305e-05
sV\u671f
p975
F0.00025831820497549567
sV\u649e
p976
F0.00013633460818151158
sV\u5821
p977
F7.175505693763768e-06
sV\u7fa4
p978
F0.00019373865373162173
sV\u90a6
p979
F7.175505693763768e-06
sV\u5429
p980
F1.4351011387527537e-05
sV\u4f2f
p981
F7.175505693763768e-06
sV\u6cae
p982
F2.8702022775055073e-05
sV1
p983
F0.00018656314803785796
sV\u5f1f
p984
F0.00018656314803785796
sV\u627e
p985
F0.0007103750636826131
sV\u723d
p986
F2.8702022775055073e-05
sV\u4e45
p987
F0.0005309874213385188
sV\u4fc4
p988
F7.175505693763768e-06
sV\u80c6
p989
F0.00012198359679398405
sV\u594b
p990
F0.00016503663095656667
sV\u5bcc
p991
F0.0001578611252628029
sV\u52d2
p992
F2.1526517081291305e-05
sV\u6eda
p993
F0.00021526517081291304
sV\u83dc
p994
F0.00017221213665033044
sV\u675f
p995
F0.00012915910248774784
sV\u5367
p996
F7.175505693763768e-06
sV\u70e6
p997
F0.00016503663095656667
sV\u95e8
p998
F0.0010189218085144551
sV\u96ea
p999
F0.0004305303416258261
sV\u8f6f
p1000
F0.0003659507903819522
sV\u773a
p1001
F7.175505693763768e-06
sV\u67f4
p1002
F0.00015068561956903912
sV\u7b77
p1003
F3.587752846881884e-05
sV\u58f6
p1004
F2.1526517081291305e-05
sV\u517b
p1005
F0.000308546744831842
sV\u5efa
p1006
F0.0001578611252628029
sV\u527d
p1007
F1.4351011387527537e-05
sV\u94fe
p1008
F1.4351011387527537e-05
sV\u6b81
p1009
F7.175505693763768e-06
sV\u8a00
p1010
F0.0003659507903819522
sV\u6e83
p1011
F2.8702022775055073e-05
sV\u8d85
p1012
F0.00010045707971269275
sV\u8087
p1013
F2.1526517081291305e-05
sV\u6789
p1014
F2.8702022775055073e-05
sV\u9f0e
p1015
F7.175505693763768e-06
sV\u7693
p1016
F7.175505693763768e-06
sV\u6897
p1017
F2.1526517081291305e-05
sV\u8f99
p1018
F7.175505693763768e-06
sV\u4e18
p1019
F2.1526517081291305e-05
sV\u629b
p1020
F9.328157401892898e-05
sV\u819d
p1021
F0.00016503663095656667
sV\u601c
p1022
F0.00020808966511914927
sV\u7ba1
p1023
F0.000401828318850771
sV\u7a20
p1024
F3.587752846881884e-05
sV\u5c24
p1025
F2.1526517081291305e-05
sV\u77a9
p1026
F7.175505693763768e-06
sV\u83b1
p1027
F7.175505693763768e-06
sV\u62df
p1028
F7.175505693763768e-06
sV\u5e38
p1029
F0.0008538851775578884
sV\u51bd
p1030
F1.4351011387527537e-05
sV\u903c
p1031
F0.00018656314803785796
sV\u973e
p1032
F1.4351011387527537e-05
sV\u8bc1
p1033
F0.0001793876423440942
sV\u6942
p1034
F1.4351011387527537e-05
sV\u954c
p1035
F2.1526517081291305e-05
sV\u6346
p1036
F7.893056263140145e-05
sV\u7acb
p1037
F0.0003803018017694797
sV\u79cd
p1038
F0.002001966088560091
sV\u584c
p1039
F5.0228539856346375e-05
sV\u9ccf
p1040
F7.175505693763768e-06
sV\u53d1
p1041
F0.0023033373276981697
sV\u5250
p1042
F2.8702022775055073e-05
sV\u5f62
p1043
F0.0003587752846881884
sV\u75d5
p1044
F0.00012198359679398405
sV\u8fd9
p1045
F0.0049941519628595825
sV\u4e58
p1046
F5.7404045550110146e-05
sV\u62db
p1047
F8.610606832516522e-05
sV\u8d5a
p1048
F7.175505693763768e-06
sV\u005c
p1049
F0.0006888485466013218
sV\u5be1
p1050
F5.7404045550110146e-05
sV\u5962
p1051
F2.1526517081291305e-05
sV\u5de5
p1052
F0.0003803018017694797
sV\u50e7
p1053
F7.175505693763768e-06
sV\u5366
p1054
F2.8702022775055073e-05
sV\u77e9
p1055
F4.305303416258261e-05
sV\u9668
p1056
F7.175505693763768e-06
sV\u756a
p1057
F0.00014351011387527535
sV\u886c
p1058
F0.00010045707971269275
sV\u6cef
p1059
F7.175505693763768e-06
sV\u8f6e
p1060
F0.00010763258540645652
sV\u6270
p1061
F6.457955124387392e-05
sV\u66f3
p1062
F1.4351011387527537e-05
sV\u78f7
p1063
F2.1526517081291305e-05
sV\u5e78
p1064
F0.00032289775621936956
sV\u707c
p1065
F7.893056263140145e-05
sV\u4e03
p1066
F0.00015068561956903912
sV\u6982
p1067
F0.00025831820497549567
sV\u6709
p1068
F0.007039171085582256
sV\u7a0b
p1069
F0.00013633460818151158
sV\u590d
p1070
F0.000308546744831842
sV\u788c
p1071
F5.7404045550110146e-05
sV\u5c0f
p1072
F0.0035734018354943563
sV\u7f8e
p1073
F0.0019015090088473985
sV\u9192
p1074
F0.0002870202277505507
sV\u6817
p1075
F7.175505693763768e-05
sV\u4f19
p1076
F6.457955124387392e-05
sV\u4e98
p1077
F1.4351011387527537e-05
sV\u4f9b
p1078
F1.4351011387527537e-05
sV\u9aa0
p1079
F7.175505693763768e-06
sV\u9e23
p1080
F6.457955124387392e-05
sV\u501a
p1081
F0.00013633460818151158
sV\u9ca4
p1082
F2.1526517081291305e-05
sV\u7729
p1083
F2.1526517081291305e-05
sV\u60f3
p1084
F0.002697990140855177
sV\u5bb6
p1085
F0.0015283827127716826
sV\u5f39
p1086
F4.305303416258261e-05
sV\u5eb8
p1087
F2.8702022775055073e-05
sV\u523b
p1088
F0.0005022853985634638
sV\u70bc
p1089
F5.0228539856346375e-05
sV\u6e43
p1090
F1.4351011387527537e-05
sV\u89c2
p1091
F0.0002870202277505507
sV\u6d45
p1092
F0.00013633460818151158
sV\u6cc4
p1093
F6.457955124387392e-05
sV\u8749
p1094
F7.175505693763768e-06
sV\u5c4f
p1095
F2.1526517081291305e-05
sV\u5351
p1096
F9.328157401892898e-05
sV\u72d0
p1097
F2.8702022775055073e-05
sV\u5555
p1098
F2.1526517081291305e-05
sV\u8857
p1099
F4.305303416258261e-05
sV\u4f59
p1100
F0.0001793876423440942
sV\u4ed8
p1101
F8.610606832516522e-05
sV\u625b
p1102
F5.0228539856346375e-05
sV\u8dda
p1103
F1.4351011387527537e-05
sV\u80dc
p1104
F5.7404045550110146e-05
sV\u67de
p1105
F7.175505693763768e-06
sV\u7ae0
p1106
F9.328157401892898e-05
sV\u53e6
p1107
F0.00040900382454453477
sV\u9769
p1108
F0.00012198359679398405
sV\u96e8
p1109
F0.00011480809110022029
sV\u95ea
p1110
F0.00023679168789420436
sV\u4fee
p1111
F8.610606832516522e-05
sV\u9877
p1112
F1.4351011387527537e-05
sV\u5f79
p1113
F3.587752846881884e-05
sV\u7ef8
p1114
F2.1526517081291305e-05
sV\u517d
p1115
F9.328157401892898e-05
sV\u4f83
p1116
F1.4351011387527537e-05
sV\u8206
p1117
F1.4351011387527537e-05
sV\u6708
p1118
F0.0003803018017694797
sV\u788d
p1119
F4.305303416258261e-05
sV\u5310
p1120
F1.4351011387527537e-05
sV\u9152
p1121
F0.00015068561956903912
sV\u5012
p1122
F0.0006099179839699203
sV\u5495
p1123
F2.8702022775055073e-05
sV\u5514
p1124
F7.175505693763768e-06
sV\u4f18
p1125
F0.00014351011387527535
sV\u62fe
p1126
F2.8702022775055073e-05
sV\u809d
p1127
F7.175505693763768e-06
sV\u9a84
p1128
F0.00018656314803785796
sV\u7ca5
p1129
F7.175505693763768e-06
sV\u5728
p1130
F0.008438394695866191
sV\u88ad
p1131
F6.457955124387392e-05
sV\u6daf
p1132
F7.175505693763768e-05
sV\u8e2e
p1133
F2.1526517081291305e-05
sV\u62b1
p1134
F0.0002511426992817319
sV\u8109
p1135
F5.0228539856346375e-05
sV2
p1136
F2.1526517081291305e-05
sV\u9b3c
p1137
F0.0002009141594253855
sV\u5a36
p1138
F3.587752846881884e-05
sV\u7eb9
p1139
F7.175505693763768e-05
sV\u7f38
p1140
F3.587752846881884e-05
sV\u53bb
p1141
F0.004176144313770513
sV\u5c3a
p1142
F0.00011480809110022029
sV\u70bd
p1143
F6.457955124387392e-05
sV\u763e
p1144
F2.1526517081291305e-05
sV\u4fc3
p1145
F0.00010763258540645652
sV\u6842
p1146
F7.175505693763768e-06
sV\u6cc5
p1147
F1.4351011387527537e-05
sV\u8d44
p1148
F7.893056263140145e-05
sV\u6748
p1149
F1.4351011387527537e-05
sV\u644a
p1150
F5.7404045550110146e-05
sV\u4e8c
p1151
F0.0003587752846881884
sV\u7554
p1152
F1.4351011387527537e-05
sV\u4ed9
p1153
F5.7404045550110146e-05
sV\u611a
p1154
F1.4351011387527537e-05
sV\u6beb
p1155
F0.00027984472205678693
sV\u8def
p1156
F0.001054799336983274
sV\u8d3c
p1157
F2.1526517081291305e-05
sV\u62f1
p1158
F4.305303416258261e-05
sV\u67f3
p1159
F1.4351011387527537e-05
sVr
p1160
F0.0003444242733006609
sV\u6574
p1161
F0.0005022853985634638
sV\u7a76
p1162
F0.0001578611252628029
sV\u90fd
p1163
F0.0023966189017170987
sV\u517c
p1164
F7.175505693763768e-06
sV\u767e
p1165
F0.00012915910248774784
sV\u8c05
p1166
F2.1526517081291305e-05
sV\u8d84
p1167
F1.4351011387527537e-05
sV\u5740
p1168
F1.4351011387527537e-05
sV\u780d
p1169
F5.7404045550110146e-05
sV\u5211
p1170
F2.1526517081291305e-05
sV\u7092
p1171
F5.0228539856346375e-05
sV\u5594
p1172
F3.587752846881884e-05
sV\u8f98
p1173
F1.4351011387527537e-05
sV\u631b
p1174
F2.1526517081291305e-05
sV\u601d
p1175
F0.0003372487676068971
sV\u5ba0
p1176
F5.7404045550110146e-05
sV\u7629
p1177
F2.8702022775055073e-05
sV\u54aa
p1178
F1.4351011387527537e-05
sV\u8d2f
p1179
F2.8702022775055073e-05
sV\u4eae
p1180
F0.00046640787009464494
sV\u63b0
p1181
F3.587752846881884e-05
sV\u80b2
p1182
F6.457955124387392e-05
sV\u533b
p1183
F0.00021526517081291304
sV\u553f
p1184
F2.1526517081291305e-05
sV\u96be
p1185
F0.0010404483255957464
sV\u8bc0
p1186
F2.1526517081291305e-05
sV\u88c2
p1187
F0.00012198359679398405
sV\u8dc4
p1188
F2.8702022775055073e-05
sV\u62c6
p1189
F5.7404045550110146e-05
sV\u7b4b
p1190
F0.00011480809110022029
sV\u80f6
p1191
F2.1526517081291305e-05
sV\u7ece
p1192
F7.175505693763768e-06
sV\u5455
p1193
F2.8702022775055073e-05
sV\u55d4
p1194
F7.175505693763768e-06
sV\u8e59
p1195
F1.4351011387527537e-05
sV\u8fd8
p1196
F0.0016647173209531942
sV\u8361
p1197
F0.00019373865373162173
sV\u9ed1
p1198
F0.0007749546149264869
sV\u5c65
p1199
F3.587752846881884e-05
sV\u7167
p1200
F0.0003444242733006609
sV\u7f50
p1201
F3.587752846881884e-05
sV\u5669
p1202
F5.0228539856346375e-05
sV\u54ea
p1203
F0.0005525139384198101
sV\u5bd3
p1204
F7.175505693763768e-06
sV\u6773
p1205
F7.175505693763768e-06
sV\u7977
p1206
F2.8702022775055073e-05
sV\u5ff8
p1207
F1.4351011387527537e-05
sV\u907d
p1208
F1.4351011387527537e-05
sV\u957f
p1209
F0.0011696074280834942
sV\u96fe
p1210
F6.457955124387392e-05
sV\u8d81
p1211
F4.305303416258261e-05
sV\u6f02
p1212
F0.00019373865373162173
sV\u6f14
p1213
F7.175505693763768e-05
sV\u6687
p1214
F1.4351011387527537e-05
sV\u5e0c
p1215
F0.00012915910248774784
sV\u4eac
p1216
F7.175505693763768e-06
sV\u7591
p1217
F0.0002439671935879681
sV\u5410
p1218
F0.0002654937106692594
sV\u731d
p1219
F2.8702022775055073e-05
sV\u5395
p1220
F7.175505693763768e-06
sV\u679d
p1221
F0.00012198359679398405
sV\u5531
p1222
F0.00013633460818151158
sV\u9526
p1223
F1.4351011387527537e-05
sV\u6cab
p1224
F1.4351011387527537e-05
sV\u732a
p1225
F2.1526517081291305e-05
sV3
p1226
F1.4351011387527537e-05
sV\u6234
p1227
F0.00010045707971269275
sV\u5eb7
p1228
F2.1526517081291305e-05
sV\u59b9
p1229
F0.0013131175419587695
sV\u7838
p1230
F5.7404045550110146e-05
sV\u54bb
p1231
F1.4351011387527537e-05
sV\u52bf
p1232
F0.00018656314803785796
sV\u8bc5
p1233
F3.587752846881884e-05
sV\u86c7
p1234
F2.1526517081291305e-05
sV\u5760
p1235
F5.7404045550110146e-05
sV\u5ccb
p1236
F7.175505693763768e-06
sV\u5fcd
p1237
F0.00015068561956903912
sV\u5e4c
p1238
F7.175505693763768e-06
sV\u55d1
p1239
F7.175505693763768e-06
sV\u5450
p1240
F3.587752846881884e-05
sV\u9752
p1241
F0.0011696074280834942
sV\u5254
p1242
F3.587752846881884e-05
sV\u4ed7
p1243
F1.4351011387527537e-05
sV\u8d56
p1244
F0.00010045707971269275
sV\u82df
p1245
F2.1526517081291305e-05
sV\u7f62
p1246
F0.00012915910248774784
sV\u5566
p1247
F0.0002009141594253855
sV\u8e66
p1248
F5.0228539856346375e-05
sV\u4fed
p1249
F7.175505693763768e-06
sV\u8e6c
p1250
F2.8702022775055073e-05
sV\u80f3
p1251
F6.457955124387392e-05
sV\u7ef7
p1252
F2.8702022775055073e-05
sV\u52ff
p1253
F1.4351011387527537e-05
sV\u6d01
p1254
F0.0001793876423440942
sV\u6109
p1255
F3.587752846881884e-05
sV\u94ed
p1256
F7.175505693763768e-06
sV\u5490
p1257
F1.4351011387527537e-05
sV\u5792
p1258
F2.8702022775055073e-05
sV\u6e17
p1259
F0.00011480809110022029
sV\u671d
p1260
F0.00025831820497549567
sV\u821f
p1261
F1.4351011387527537e-05
sV\u9aa4
p1262
F5.0228539856346375e-05
sV\u50a8
p1263
F7.175505693763768e-06
sV\u8eac
p1264
F7.175505693763768e-06
sV\u9636
p1265
F3.587752846881884e-05
sV\u8033
p1266
F0.00018656314803785796
sV\u5939
p1267
F0.00020808966511914927
sV\u543b
p1268
F0.00012198359679398405
sV\u56bc
p1269
F0.00011480809110022029
sV\u723f
p1270
F7.175505693763768e-06
sV\u6d41
p1271
F0.0003157222505256058
sV\u6843
p1272
F2.8702022775055073e-05
sV\u8fc2
p1273
F7.175505693763768e-06
sV\u55f7
p1274
F1.4351011387527537e-05
sV\u5c4b
p1275
F0.00010763258540645652
sV\u8beb
p1276
F7.175505693763768e-06
sV\u54d0
p1277
F8.610606832516522e-05
sV\u9053
p1278
F0.0014494521501402812
sV\u5355
p1279
F0.000401828318850771
sV\u68d8
p1280
F2.1526517081291305e-05
sV\u845b
p1281
F1.4351011387527537e-05
sV\u8bda
p1282
F0.00016503663095656667
sV\u55e6
p1283
F5.7404045550110146e-05
sV\u90e8
p1284
F0.0007749546149264869
sV\u8c6b
p1285
F5.7404045550110146e-05
sV\u53ea
p1286
F0.0022100557536792404
sV\u6f6d
p1287
F1.4351011387527537e-05
sV\u4eec
p1288
F0.003989581165732655
sVs
p1289
F0.00045923236440088117
sV\u62f4
p1290
F2.1526517081291305e-05
sV\u5979
p1291
F0.009923724374475291
sV\u547b
p1292
F3.587752846881884e-05
sV\u777d
p1293
F4.305303416258261e-05
sV\u76fc
p1294
F0.00019373865373162173
sV\u82b1
p1295
F0.00045923236440088117
sV\u6c81
p1296
F7.175505693763768e-06
sV\u8d2a
p1297
F5.0228539856346375e-05
sV\u8089
p1298
F0.00023679168789420436
sV\u6108
p1299
F5.0228539856346375e-05
sV\uff0c
p1300
F0.05938448512158894
sV\u5b8f
p1301
F7.175505693763768e-06
sV\u5510
p1302
F1.4351011387527537e-05
sV\u8482
p1303
F4.305303416258261e-05
sV\u8005
p1304
F0.00045923236440088117
sV\u871c
p1305
F6.457955124387392e-05
sV\u7d20
p1306
F0.00015068561956903912
sV\u7aa5
p1307
F7.175505693763768e-06
sV\u77a7
p1308
F0.0002511426992817319
sV\u5426
p1309
F0.0003587752846881884
sV\u722a
p1310
F7.175505693763768e-06
sV\u4ead
p1311
F1.4351011387527537e-05
sV\u7728
p1312
F7.175505693763768e-06
sV\u8baf
p1313
F3.587752846881884e-05
sV\u62b5
p1314
F9.328157401892898e-05
sV\u5fb7
p1315
F4.305303416258261e-05
sV\u5b88
p1316
F0.00022961618220044059
sV\u5938
p1317
F5.0228539856346375e-05
sV\u55bb
p1318
F7.175505693763768e-06
sV\u773c
p1319
F0.0016647173209531942
sV\u53bf
p1320
F2.8702022775055073e-05
sV\u503e
p1321
F5.7404045550110146e-05
sV\u6446
p1322
F0.00014351011387527535
sV\u6148
p1323
F6.457955124387392e-05
sV\u7ecd
p1324
F4.305303416258261e-05
sV\u8863
p1325
F0.0007247260750701406
sV\u54d1
p1326
F6.457955124387392e-05
sV\u610f
p1327
F0.0014996806899966275
sV\u4fd7
p1328
F6.457955124387392e-05
sV\u88d9
p1329
F7.175505693763768e-06
sV\u675c
p1330
F7.175505693763768e-06
sV\u5ce1
p1331
F1.4351011387527537e-05
sV\u5bb0
p1332
F2.1526517081291305e-05
sV\u59e3
p1333
F7.175505693763768e-06
sV\u5e62
p1334
F7.175505693763768e-06
sV\u7ae5
p1335
F0.0002439671935879681
sV\u5b64
p1336
F0.0002941957334443145
sV\u97e7
p1337
F2.8702022775055073e-05
sV\u5168
p1338
F0.0010404483255957464
sV\u526a
p1339
F2.1526517081291305e-05
sV\u4f6c
p1340
F4.305303416258261e-05
sV\u6bef
p1341
F1.4351011387527537e-05
sV\u6570
p1342
F0.000308546744831842
sV\u81f3
p1343
F0.0007606036035389594
sV\u7978
p1344
F5.0228539856346375e-05
sV\u95fb
p1345
F0.00013633460818151158
sV\u7a7a
p1346
F0.0004735833757884087
sV\u56fd
p1347
F0.0008754116946391797
sV\u707e
p1348
F0.00013633460818151158
sV\u8c01
p1349
F0.00023679168789420436
sV\u8707
p1350
F7.175505693763768e-06
sV\u628a
p1351
F0.0022387577764542955
sV\u9f8c
p1352
F7.175505693763768e-06
sV\u788e
p1353
F0.00022244067650667681
sV\u5411
p1354
F0.0008897627060267073
sV\u4f17
p1355
F0.0001793876423440942
sV\u679c
p1356
F0.0003587752846881884
sV\u631f
p1357
F2.1526517081291305e-05
sV\u7ea2
p1358
F0.0005596894441135739
sV\u5a25
p1359
F7.175505693763768e-06
sV\u5ba4
p1360
F0.0001578611252628029
sV\u94a6
p1361
F7.175505693763768e-06
sV\u8d2b
p1362
F5.0228539856346375e-05
sV\u52aa
p1363
F8.610606832516522e-05
sV\u4e2d
p1364
F0.002712341152242704
sV\u6073
p1365
F5.7404045550110146e-05
sV\u65b0
p1366
F0.0009256402344955261
sV\u63b4
p1367
F7.175505693763768e-06
sV\u8e48
p1368
F1.4351011387527537e-05
sV\u753b
p1369
F7.175505693763768e-05
sV\u733f
p1370
F1.4351011387527537e-05
sV\u6c41
p1371
F2.1526517081291305e-05
sV\u8bc4
p1372
F1.4351011387527537e-05
sV\u8747
p1373
F7.175505693763768e-06
sVI
p1374
F7.175505693763768e-06
sV\u5fcc
p1375
F4.305303416258261e-05
sV\u7b4f
p1376
F2.1526517081291305e-05
sV\u98ce
p1377
F0.0009973952914331637
sV\u76d2
p1378
F0.00010045707971269275
sV\u53d4
p1379
F3.587752846881884e-05
sV\u655b
p1380
F2.8702022775055073e-05
sV\u67dc
p1381
F3.587752846881884e-05
sV\u635f
p1382
F7.175505693763768e-05
sV\u80de
p1383
F2.8702022775055073e-05
sV\u5c61
p1384
F7.175505693763768e-05
sV\u7ee2
p1385
F4.305303416258261e-05
sV\u74e6
p1386
F0.0006099179839699203
sV\u94d0
p1387
F2.1526517081291305e-05
sV\u5ea6
p1388
F0.0003444242733006609
sV\u8e6d
p1389
F5.0228539856346375e-05
sV\u5ed3
p1390
F1.4351011387527537e-05
sV\u68ee
p1391
F6.457955124387392e-05
sV\u8471
p1392
F1.4351011387527537e-05
sV\u66f2
p1393
F0.00022244067650667681
sV\u63f4
p1394
F2.1526517081291305e-05
sV\u9879
p1395
F2.1526517081291305e-05
sV\u767d
p1396
F0.0008754116946391797
sV\u537f
p1397
F1.4351011387527537e-05
sV\u4e00
p1398
F0.016367328487475154
sV\u6487
p1399
F2.8702022775055073e-05
sV\u6389
p1400
F0.0006529710181325029
sV\u6208
p1401
F1.4351011387527537e-05
sV\u810a
p1402
F3.587752846881884e-05
sV\u7c0c
p1403
F2.8702022775055073e-05
sV\u988f
p1404
F2.8702022775055073e-05
sV\u7791
p1405
F7.175505693763768e-06
sV\u9512
p1406
F7.175505693763768e-06
sV\u9014
p1407
F0.00013633460818151158
sV\u641c
p1408
F1.4351011387527537e-05
sV\u609f
p1409
F0.00012198359679398405
sV\u7fa1
p1410
F4.305303416258261e-05
sV\u7530
p1411
F2.1526517081291305e-05
sV\u7aa3
p1412
F2.8702022775055073e-05
sV\u7d22
p1413
F0.00013633460818151158
sV\u59a5
p1414
F5.7404045550110146e-05
sV\u5824
p1415
F7.175505693763768e-06
sV\u54a7
p1416
F0.00010045707971269275
sV\u73a9
p1417
F7.175505693763768e-05
sV\u5228
p1418
F1.4351011387527537e-05
sV\u4eab
p1419
F8.610606832516522e-05
sV\u5406
p1420
F1.4351011387527537e-05
sV\u8c2c
p1421
F2.1526517081291305e-05
sV\u68af
p1422
F7.175505693763768e-06
sV\u6089
p1423
F9.328157401892898e-05
sV\u82b3
p1424
F4.305303416258261e-05
sV4
p1425
F1.4351011387527537e-05
sV\u5bb9
p1426
F0.0003587752846881884
sV\u593a
p1427
F0.00020808966511914927
sV\u543c
p1428
F4.305303416258261e-05
sV\u91ca
p1429
F7.893056263140145e-05
sV\u733e
p1430
F3.587752846881884e-05
sV\u8fc1
p1431
F0.00010045707971269275
sV\u89c5
p1432
F5.0228539856346375e-05
sV\u6746
p1433
F3.587752846881884e-05
sV\u63c9
p1434
F5.0228539856346375e-05
sV\u6248
p1435
F7.175505693763768e-06
sV\u814a
p1436
F7.175505693763768e-06
sV\u5dcd
p1437
F7.175505693763768e-06
sV\u9650
p1438
F0.00010763258540645652
sV\u6bd9
p1439
F7.175505693763768e-06
sV\u86db
p1440
F7.175505693763768e-06
sV\u695a
p1441
F0.0002009141594253855
sV\u60df
p1442
F9.328157401892898e-05
sV\u5fe1
p1443
F3.587752846881884e-05
sV\u54e7
p1444
F2.8702022775055073e-05
sV\u5766
p1445
F7.893056263140145e-05
sV\u53e9
p1446
F1.4351011387527537e-05
sV\u6b66
p1447
F2.8702022775055073e-05
sV\u67f1
p1448
F4.305303416258261e-05
sV\u6670
p1449
F1.4351011387527537e-05
sV\u62f3
p1450
F5.0228539856346375e-05
sV\u6572
p1451
F0.00018656314803785796
sVt
p1452
F0.0005740404555011014
sV\u5bf9
p1453
F0.002576006544061193
sV\u55fd
p1454
F2.8702022775055073e-05
sV\u547c
p1455
F0.0003157222505256058
sV\u4f01
p1456
F1.4351011387527537e-05
sV\u6d82
p1457
F0.00010045707971269275
sV\u6905
p1458
F2.8702022775055073e-05
sV\u8884
p1459
F4.305303416258261e-05
sV\u6309
p1460
F0.00011480809110022029
sV\u818a
p1461
F6.457955124387392e-05
sV\u9690
p1462
F0.0002941957334443145
sV\u7115
p1463
F5.0228539856346375e-05
sV\u8f96
p1464
F7.175505693763768e-06
sV\u7ea0
p1465
F2.1526517081291305e-05
sV\u98a4
p1466
F0.00017221213665033044
sV\u5427
p1467
F0.0002511426992817319
sV\u5668
p1468
F0.00012198359679398405
sV\u7329
p1469
F7.175505693763768e-06
sV\u52a8
p1470
F0.0014996806899966275
sV\u4e2b
p1471
F2.8702022775055073e-05
sV\u8d2d
p1472
F2.8702022775055073e-05
sV\u8bae
p1473
F0.00011480809110022029
sV\u6731
p1474
F0.00015068561956903912
sV\u6233
p1475
F2.8702022775055073e-05
sV\u60b4
p1476
F2.8702022775055073e-05
sV\u7ab8
p1477
F2.8702022775055073e-05
sV\u963b
p1478
F5.0228539856346375e-05
sV\u4ec0
p1479
F0.001241362485021132
sV\u6447
p1480
F0.0003803018017694797
sV\u6349
p1481
F4.305303416258261e-05
sV\u62c8
p1482
F7.175505693763768e-06
sV\u81ca
p1483
F7.175505693763768e-06
sV\u5751
p1484
F5.0228539856346375e-05
sV\u76d0
p1485
F3.587752846881884e-05
sV\u75d2
p1486
F1.4351011387527537e-05
sV\u70e7
p1487
F0.0003157222505256058
sV\u6c57
p1488
F0.00011480809110022029
sV\u9709
p1489
F5.0228539856346375e-05
sV\u9ee0
p1490
F7.175505693763768e-06
sV\u5965
p1491
F7.175505693763768e-05
sV\u8fd0
p1492
F0.00044488135301335363
sV\u8d6d
p1493
F7.175505693763768e-06
sV\u8273
p1494
F4.305303416258261e-05
sV\u6175
p1495
F2.1526517081291305e-05
sV\u60f4
p1496
F4.305303416258261e-05
sV\u7b79
p1497
F7.175505693763768e-06
sV\u767b
p1498
F1.4351011387527537e-05
sV\u54fc
p1499
F6.457955124387392e-05
sV\u707f
p1500
F7.893056263140145e-05
sV\u8e81
p1501
F6.457955124387392e-05
sV\u6885
p1502
F2.1526517081291305e-05
sV\u6587
p1503
F0.0008108321433953058
sV\u6289
p1504
F2.1526517081291305e-05
sV\u5f8b
p1505
F4.305303416258261e-05
sV\u798f
p1506
F0.0001793876423440942
sV\u7691
p1507
F2.8702022775055073e-05
sV\u7095
p1508
F3.587752846881884e-05
sV\u4e16
p1509
F0.0005022853985634638
sV\u821e
p1510
F9.328157401892898e-05
sV\u7f20
p1511
F7.175505693763768e-05
sV\u5ba3
p1512
F7.893056263140145e-05
sV\u80da
p1513
F1.4351011387527537e-05
sV\u55a7
p1514
F2.1526517081291305e-05
sV\u7626
p1515
F0.00012198359679398405
sV\u52a9
p1516
F7.175505693763768e-05
sV\u8fab
p1517
F2.8702022775055073e-05
sV\u502a
p1518
F0.0014494521501402812
sV\u8d2c
p1519
F2.1526517081291305e-05
sV\u4f09
p1520
F7.175505693763768e-06
sV\u5632
p1521
F7.893056263140145e-05
sV\u77bb
p1522
F2.1526517081291305e-05
sV\u783a
p1523
F1.4351011387527537e-05
sV\u54bd
p1524
F0.00010045707971269275
sV\u4ec1
p1525
F5.7404045550110146e-05
sV\u9893
p1526
F7.175505693763768e-06
sV\u6c42
p1527
F0.0003803018017694797
sV\u88c5
p1528
F0.0004305303416258261
sV\u62c9
p1529
F0.0004233548359320623
sV\u7ed8
p1530
F5.7404045550110146e-05
sV\u804a
p1531
F8.610606832516522e-05
sV\u5d4c
p1532
F2.1526517081291305e-05
sV\u76d1
p1533
F4.305303416258261e-05
sV\u7750
p1534
F1.4351011387527537e-05
sV\u4e56
p1535
F5.0228539856346375e-05
sV\u5065
p1536
F6.457955124387392e-05
sV\u84dd
p1537
F5.7404045550110146e-05
sV\u555c
p1538
F3.587752846881884e-05
sV\u75e7
p1539
F7.175505693763768e-06
sV\u8feb
p1540
F0.00010763258540645652
sV\u6770
p1541
F2.1526517081291305e-05
sV\u9992
p1542
F2.8702022775055073e-05
sV\u8174
p1543
F7.175505693763768e-06
sV\u5df7
p1544
F1.4351011387527537e-05
sV\u5e76
p1545
F0.0005740404555011014
sV\u7af9
p1546
F5.7404045550110146e-05
sV\u987a
p1547
F0.0002009141594253855
sV\u54fd
p1548
F1.4351011387527537e-05
sV\u557c
p1549
F2.1526517081291305e-05
sV\u51ff
p1550
F1.4351011387527537e-05
sV\u4e01
p1551
F2.8702022775055073e-05
sV\u8c82
p1552
F7.175505693763768e-06
sV\u6805
p1553
F5.0228539856346375e-05
sV\u6388
p1554
F1.4351011387527537e-05
sV\u590f
p1555
F0.00011480809110022029
sV\u5492
p1556
F3.587752846881884e-05
sV\u6d17
p1557
F0.00025831820497549567
sV\u671b
p1558
F0.0008251831547828333
sV\u841d
p1559
F1.4351011387527537e-05
sV\u659c
p1560
F0.00016503663095656667
sV\u611f
p1561
F0.0020378436170289103
sV\u9e21
p1562
F0.00012198359679398405
sV\u5229
p1563
F0.00023679168789420436
sV\u53a8
p1564
F5.0228539856346375e-05
sV\u6f2b
p1565
F0.0001793876423440942
sV\u90aa
p1566
F0.00012198359679398405
sV\u609a
p1567
F7.175505693763768e-06
sV\u84b2
p1568
F1.4351011387527537e-05
sV5
p1569
F1.4351011387527537e-05
sV\u7eb6
p1570
F7.175505693763768e-06
sV\u75bc
p1571
F0.00012915910248774784
sV\u513f
p1572
F0.0018799824917661073
sV\u6fc0
p1573
F0.00044488135301335363
sV\u6845
p1574
F7.175505693763768e-06
sV\u89c4
p1575
F0.00013633460818151158
sV\u9981
p1576
F2.1526517081291305e-05
sV\u6249
p1577
F2.8702022775055073e-05
sV\u60ca
p1578
F0.0004951098928697
sV\u7c4d
p1579
F7.175505693763768e-06
sV\u594f
p1580
F1.4351011387527537e-05
sV\u4ed6
p1581
F0.011983094508585493
sV\u8bd8
p1582
F7.175505693763768e-06
sV\u68da
p1583
F8.610606832516522e-05
sV\u8f7b
p1584
F0.0005812159611948652
sV\u82de
p1585
F7.175505693763768e-06
sV\u5e61
p1586
F7.175505693763768e-06
sV\u5fe0
p1587
F9.328157401892898e-05
sV\u5b63
p1588
F0.00010763258540645652
sV\u5269
p1589
F0.00013633460818151158
sV\u53e8
p1590
F7.175505693763768e-06
sV\u6dec
p1591
F7.175505693763768e-06
sV\u81f4
p1592
F0.00018656314803785796
sV\u5ef6
p1593
F6.457955124387392e-05
sV\u7a79
p1594
F2.1526517081291305e-05
sV\u5bf8
p1595
F9.328157401892898e-05
sV\u78fa
p1596
F7.175505693763768e-06
sV\u547d
p1597
F0.000896938211720471
sV\u917f
p1598
F4.305303416258261e-05
sV\u52fe
p1599
F8.610606832516522e-05
sV\u9000
p1600
F0.0002654937106692594
sV\u7483
p1601
F6.457955124387392e-05
sV\u9a87
p1602
F7.175505693763768e-06
sV\u808b
p1603
F7.175505693763768e-06
sV\u5f0a
p1604
F7.175505693763768e-06
sV\u820c
p1605
F8.610606832516522e-05
sV\u70ac
p1606
F2.1526517081291305e-05
sV\u6c93
p1607
F7.175505693763768e-06
sV\u4e14
p1608
F0.00038747730746324345
sV\u7599
p1609
F2.8702022775055073e-05
sV\u5b9d
p1610
F9.328157401892898e-05
sV\u5a1c
p1611
F0.0014638031615278088
sV\u5e9f
p1612
F0.00010763258540645652
sV 
p1613
F0.00012198359679398405
sV\u6da9
p1614
F0.00013633460818151158
sV\u8c28
p1615
F8.610606832516522e-05
sV\u70ab
p1616
F1.4351011387527537e-05
sV\u4f2a
p1617
F8.610606832516522e-05
sV\u722c
p1618
F7.893056263140145e-05
sV\u952e
p1619
F3.587752846881884e-05
sV\u7830
p1620
F1.4351011387527537e-05
sV\u7ae6
p1621
F1.4351011387527537e-05
sV\u65b9
p1622
F0.0009328157401892899
sV\u673a
p1623
F0.0004879343871759362
sV\u8bbd
p1624
F2.8702022775055073e-05
sV\u6d3e
p1625
F0.00010045707971269275
sV\u514b
p1626
F5.7404045550110146e-05
sV\u9644
p1627
F8.610606832516522e-05
sV\u5c48
p1628
F8.610606832516522e-05
sV\u60cb
p1629
F7.175505693763768e-06
sV\u63cd
p1630
F1.4351011387527537e-05
sV\u4e8f
p1631
F0.00010045707971269275
sV\u72d7
p1632
F6.457955124387392e-05
sV\u5458
p1633
F0.0003587752846881884
sV\u575a
p1634
F0.00012915910248774784
sV\u5bdd
p1635
F1.4351011387527537e-05
sV\u7edf
p1636
F0.00012198359679398405
sV\u6362
p1637
F0.00030137123913807825
sV\u67e5
p1638
F6.457955124387392e-05
sV\u70eb
p1639
F5.7404045550110146e-05
sV\u9510
p1640
F0.00010763258540645652
sV\u76ef
p1641
F5.7404045550110146e-05
sV\u5ff5
p1642
F0.00040900382454453477
sV\u5e74
p1643
F0.0012772400134899507
sV\u6478
p1644
F0.00023679168789420436
sV\u4eff
p1645
F0.0012198359679398405
sV\u9080
p1646
F2.1526517081291305e-05
sV\u5403
p1647
F0.0005094609042572276
sV\u5382
p1648
F2.8702022775055073e-05
sV\u7684
p1649
F0.03269877944648149
sV\u5a07
p1650
F6.457955124387392e-05
sV\u5986
p1651
F7.175505693763768e-06
sV\u7f8a
p1652
F6.457955124387392e-05
sV\u660f
p1653
F0.0003587752846881884
sV\u8f6c
p1654
F0.0004305303416258261
sV\u6c13
p1655
F7.175505693763768e-06
sV\u81c2
p1656
F7.175505693763768e-05
sV\u8bef
p1657
F0.00012915910248774784
sV\u5217
p1658
F0.00016503663095656667
sV\u9519
p1659
F0.00027984472205678693
sV\u7a9c
p1660
F2.8702022775055073e-05
sV\u9e1f
p1661
F7.175505693763768e-05
sV\u60a0
p1662
F5.7404045550110146e-05
sV\u63a2
p1663
F0.0002439671935879681
sV\u8d29
p1664
F2.8702022775055073e-05
sV\u72ac
p1665
F7.175505693763768e-06
sV\u75ae
p1666
F1.4351011387527537e-05
sV\u5931
p1667
F0.0007893056263140145
sV\u78b0
p1668
F0.00027984472205678693
sV\u6237
p1669
F7.175505693763768e-05
sV\u6539
p1670
F0.00022961618220044059
sV\u84b8
p1671
F2.1526517081291305e-05
sV\u87ba
p1672
F7.175505693763768e-06
sV\u8dbe
p1673
F3.587752846881884e-05
sV\u5141
p1674
F2.8702022775055073e-05
sV\u5443
p1675
F7.175505693763768e-06
sV\u5165
p1676
F0.0005740404555011014
sV\u96c4
p1677
F7.175505693763768e-05
sV\u59c6
p1678
F7.175505693763768e-06
sV\u914d
p1679
F0.00015068561956903912
sV\u804b
p1680
F7.175505693763768e-06
sV\u634d
p1681
F7.175505693763768e-06
sV\u62cc
p1682
F1.4351011387527537e-05
sV\u864f
p1683
F2.1526517081291305e-05
sV\u6bd2
p1684
F7.893056263140145e-05
sV\u4f55
p1685
F0.0006601465238262667
sV\u4ed4
p1686
F5.0228539856346375e-05
sV\u5978
p1687
F4.305303416258261e-05
sV\u7559
p1688
F0.0005812159611948652
sV\u5b5d
p1689
F2.1526517081291305e-05
sV\u5dde
p1690
F7.175505693763768e-06
sV\u60e0
p1691
F2.1526517081291305e-05
sV\u8463
p1692
F7.175505693763768e-06
sV\u6765
p1693
F0.006407726584531045
sV\u89e6
p1694
F0.00023679168789420436
sV\u6ce8
p1695
F0.0003587752846881884
sV\u706b
p1696
F0.0012700645077961868
sV\u4fea
p1697
F7.175505693763768e-06
sV\u72ec
p1698
F0.00046640787009464494
sV\u766f
p1699
F7.175505693763768e-06
sV\u95ee
p1700
F0.001083501359758329
sV\u9971
p1701
F9.328157401892898e-05
sV\u58f0
p1702
F0.001729296872197068
sV\u7c73
p1703
F0.00017221213665033044
sV\u7ef4
p1704
F8.610606832516522e-05
sV\u6e7f
p1705
F0.00014351011387527535
sV\u5583
p1706
F1.4351011387527537e-05
sV\u5704
p1707
F7.175505693763768e-06
sV\u5806
p1708
F0.00012198359679398405
sV\u7c89
p1709
F0.00020808966511914927
sV\u840e
p1710
F3.587752846881884e-05
sV\u8910
p1711
F2.1526517081291305e-05
sV\u4e95
p1712
F8.610606832516522e-05
sV\u6eaf
p1713
F7.175505693763768e-06
sV\u5499
p1714
F2.8702022775055073e-05
sV\u7518
p1715
F0.00011480809110022029
sV\u7a9d
p1716
F7.175505693763768e-05
sV\u704c
p1717
F1.4351011387527537e-05
sV\u80a1
p1718
F0.00010763258540645652
sV\u8d28
p1719
F0.00021526517081291304
sV\u4e2a
p1720
F0.00946449201007441
sV\u94b3
p1721
F1.4351011387527537e-05
sV\u542e
p1722
F2.1526517081291305e-05
sV\u7eb5
p1723
F7.893056263140145e-05
sV\u7f34
p1724
F7.175505693763768e-06
sV\u63b7
p1725
F7.175505693763768e-06
sV6
p1726
F0.00012915910248774784
sV\u6538
p1727
F7.175505693763768e-06
sV\u69bb
p1728
F7.175505693763768e-06
sV\u4fbf
p1729
F0.000896938211720471
sV\u5634
p1730
F0.00043770584731958986
sV\u90c1
p1731
F0.00015068561956903912
sV\u5140
p1732
F2.1526517081291305e-05
sV\u5242
p1733
F7.175505693763768e-06
sV\u96c5
p1734
F7.175505693763768e-05
sV\u7bc7
p1735
F9.328157401892898e-05
sV\u6e0d
p1736
F7.175505693763768e-06
sV\u82cd
p1737
F0.00016503663095656667
sV\u67cf
p1738
F7.175505693763768e-06
sV\u4ed5
p1739
F7.175505693763768e-06
sV\u53d7
p1740
F0.000681673040907558
sV\u7c38
p1741
F7.175505693763768e-06
sV\u5565
p1742
F7.175505693763768e-06
sV\u90bb
p1743
F4.305303416258261e-05
sV\u5c5e
p1744
F0.00012198359679398405
sV\u80e1
p1745
F6.457955124387392e-05
sV\u5f3a
p1746
F0.0007319015807639044
sV\u8be7
p1747
F1.4351011387527537e-05
sV\u6866
p1748
F2.8702022775055073e-05
sV\u72ed
p1749
F7.893056263140145e-05
sV\u9699
p1750
F2.1526517081291305e-05
sV\u9970
p1751
F7.175505693763768e-05
sV\u7ef5
p1752
F0.00012915910248774784
sV\u6076
p1753
F0.0005525139384198101
sV\u667a
p1754
F0.00010045707971269275
sV\u3001
p1755
F0.0011839584394710218
sV\u5180
p1756
F2.1526517081291305e-05
sV\u9503
p1757
F7.175505693763768e-06
sV\u9605
p1758
F2.8702022775055073e-05
sV\u7784
p1759
F1.4351011387527537e-05
sV\u9886
p1760
F0.000308546744831842
sV\u5e8a
p1761
F0.00013633460818151158
sV\u820d
p1762
F0.0003587752846881884
sV\u638c
p1763
F0.00013633460818151158
sV\u6811
p1764
F0.0005166364099509913
sV\u5317
p1765
F0.0002009141594253855
sV\u5598
p1766
F0.00010045707971269275
sV\u5b9c
p1767
F1.4351011387527537e-05
sV\uff1f
p1768
F0.002231582270760532
sV\u62a2
p1769
F0.00010763258540645652
sV\u6625
p1770
F0.0002511426992817319
sV\u6b27
p1771
F1.4351011387527537e-05
sV\u68a6
p1772
F0.0002870202277505507
sV\u6da8
p1773
F2.1526517081291305e-05
sV\u772f
p1774
F1.4351011387527537e-05
sV\u5ab2
p1775
F1.4351011387527537e-05
sV\u6cbe
p1776
F4.305303416258261e-05
sV\u9041
p1777
F7.175505693763768e-06
sV\u51c0
p1778
F0.00017221213665033044
sV\u5543
p1779
F7.175505693763768e-06
sV\u72c2
p1780
F0.00022961618220044059
sV\u9645
p1781
F0.0001578611252628029
sV\u9b47
p1782
F1.4351011387527537e-05
sV\u8bcd
p1783
F0.00010763258540645652
sV\u7eca
p1784
F3.587752846881884e-05
sV\u624d
p1785
F0.001241362485021132
sV\u64ce
p1786
F2.1526517081291305e-05
sV\u6851
p1787
F1.4351011387527537e-05
sV\u6d53
p1788
F0.00013633460818151158
sV\u4ea2
p1789
F4.305303416258261e-05
sV\u8fd4
p1790
F9.328157401892898e-05
sV\u5357
p1791
F0.00016503663095656667
sV\u6d4e
p1792
F1.4351011387527537e-05
sV\u9cde
p1793
F3.587752846881884e-05
sVa
p1794
F0.00012198359679398405
sV\u51d1
p1795
F2.1526517081291305e-05
sV\u6563
p1796
F0.0003587752846881884
sV\u62e2
p1797
F3.587752846881884e-05
sV\u6b67
p1798
F2.8702022775055073e-05
sV\u6050
p1799
F0.00018656314803785796
sV\u8de8
p1800
F5.0228539856346375e-05
sV\u516b
p1801
F0.0002870202277505507
sV\u4eea
p1802
F2.1526517081291305e-05
sV\u53ec
p1803
F5.0228539856346375e-05
sV\u576f
p1804
F1.4351011387527537e-05
sV\u54ee
p1805
F3.587752846881884e-05
sV\u79f0
p1806
F0.00023679168789420436
sV\u8377
p1807
F1.4351011387527537e-05
sV\u60f6
p1808
F0.00013633460818151158
sV\u6479
p1809
F7.175505693763768e-06
sV\u4f7f
p1810
F0.0007247260750701406
sV\u5200
p1811
F0.00010763258540645652
sV\u9102
p1812
F2.1526517081291305e-05
sV\u5404
p1813
F0.0002870202277505507
sV\u9887
p1814
F2.1526517081291305e-05
sV\u5e08
p1815
F0.00016503663095656667
sV\u7d0a
p1816
F1.4351011387527537e-05
sV\u800c
p1817
F0.0022961618220044056
sV\u6912
p1818
F7.175505693763768e-06
sV\u6d95
p1819
F4.305303416258261e-05
sV\u6c14
p1820
F0.0021741782252104216
sV\u5316
p1821
F0.0003444242733006609
sV\u5618
p1822
F3.587752846881884e-05
sV\u751a
p1823
F0.0003731262960757159
sV\u7c9f
p1824
F7.175505693763768e-06
sV\u65a5
p1825
F8.610606832516522e-05
sV\u8424
p1826
F7.175505693763768e-06
sV\u68a7
p1827
F7.175505693763768e-06
sV\u8fa9
p1828
F5.0228539856346375e-05
sV\u52ab
p1829
F2.1526517081291305e-05
sV\u6d2a
p1830
F1.4351011387527537e-05
sV\u54af
p1831
F6.457955124387392e-05
sV\u7bb1
p1832
F0.0001793876423440942
sV\u7eb3
p1833
F5.7404045550110146e-05
sV\u5c34
p1834
F3.587752846881884e-05
sV
p1835
F1.4351011387527537e-05
sV\u8336
p1836
F0.00010763258540645652
sV\u8638
p1837
F7.175505693763768e-06
sV\u683c
p1838
F0.0002941957334443145
sV\u6cbf
p1839
F5.0228539856346375e-05
sV\u6f3e
p1840
F2.1526517081291305e-05
sV\u5fd8
p1841
F0.000308546744831842
sV\u75c5
p1842
F0.0006027424782761565
sV\u7a92
p1843
F3.587752846881884e-05
sV\u804c
p1844
F8.610606832516522e-05
sV\u674e
p1845
F0.00012915910248774784
sV\u4ed3
p1846
F0.00010045707971269275
sV\u558f
p1847
F2.8702022775055073e-05
sV\u5356
p1848
F0.00010045707971269275
sV\u960e
p1849
F7.175505693763768e-06
sV\u7cdf
p1850
F0.00012915910248774784
sV\u63e1
p1851
F9.328157401892898e-05
sV\u7a91
p1852
F7.175505693763768e-06
sV\u6162
p1853
F0.00030137123913807825
sV\u65e5
p1854
F0.0009112892231079986
sV\u8b66
p1855
F9.328157401892898e-05
sV\u4fe9
p1856
F6.457955124387392e-05
sV\u578b
p1857
F6.457955124387392e-05
sV\u6d6a
p1858
F0.00014351011387527535
sV\u51ed
p1859
F5.7404045550110146e-05
sV\u7ef3
p1860
F6.457955124387392e-05
sV\u533f
p1861
F2.1526517081291305e-05
sV\u6376
p1862
F1.4351011387527537e-05
sV\u8e1d
p1863
F2.8702022775055073e-05
sV\u69fd
p1864
F7.175505693763768e-06
sV\u8c41
p1865
F1.4351011387527537e-05
sV\u9505
p1866
F6.457955124387392e-05
sV\u5484
p1867
F5.7404045550110146e-05
sV\uff09
p1868
F7.175505693763768e-06
sV\u808c
p1869
F4.305303416258261e-05
sV\u640f
p1870
F7.175505693763768e-06
sV\u6a90
p1871
F1.4351011387527537e-05
sV\u4e13
p1872
F9.328157401892898e-05
sV\u9698
p1873
F3.587752846881884e-05
sV\u759a
p1874
F5.7404045550110146e-05
sV\u989c
p1875
F5.7404045550110146e-05
sV\u7f9e
p1876
F6.457955124387392e-05
sV\u6321
p1877
F6.457955124387392e-05
sV\u62a0
p1878
F7.175505693763768e-06
sV\u6525
p1879
F1.4351011387527537e-05
sV\u64a4
p1880
F0.00013633460818151158
sV\u6070
p1881
F0.00013633460818151158
sV\u6f29
p1882
F2.8702022775055073e-05
sV\u522b
p1883
F0.0014781541729153363
sV\u50ac
p1884
F9.328157401892898e-05
sV\u542f
p1885
F4.305303416258261e-05
sV\u57ae
p1886
F8.610606832516522e-05
sV\u8037
p1887
F7.175505693763768e-06
sV\u8d4b
p1888
F1.4351011387527537e-05
sV\u8fbe
p1889
F0.00015068561956903912
sV\u5341
p1890
F0.0011265543939209116
sV\u7545
p1891
F6.457955124387392e-05
sV\u54c4
p1892
F2.8702022775055073e-05
sV\u5bc6
p1893
F0.0003946528131570072
sV\u7ec8
p1894
F0.0003946528131570072
sV\u624b
p1895
F0.0021454762024353665
sV\u5976
p1896
F7.175505693763768e-05
sV\u80cc
p1897
F0.0006242689953574478
sV\u7fcc
p1898
F5.0228539856346375e-05
sV\u4e53
p1899
F2.8702022775055073e-05
sV\u89d2
p1900
F0.0003587752846881884
sV\u9686
p1901
F5.0228539856346375e-05
sV\u9057
p1902
F0.00020808966511914927
sV\u53d6
p1903
F0.00017221213665033044
sV\u9759
p1904
F0.0003659507903819522
sV\u76d8
p1905
F0.00010045707971269275
sV\u795d
p1906
F5.7404045550110146e-05
sV\u9524
p1907
F7.175505693763768e-06
sV\u6361
p1908
F3.587752846881884e-05
sV\u82d4
p1909
F7.175505693763768e-06
sV\u8be6
p1910
F0.00013633460818151158
sV\u8f69
p1911
F7.175505693763768e-06
sV\u8dea
p1912
F8.610606832516522e-05
sV\u516d
p1913
F0.00043770584731958986
sV\u70ec
p1914
F5.7404045550110146e-05
sV\u77ee
p1915
F0.00010045707971269275
sV\u5b71
p1916
F7.175505693763768e-06
sV\u5e73
p1917
F0.0008467096718641246
sV\u65fa
p1918
F4.305303416258261e-05
sV\u7281
p1919
F2.1526517081291305e-05
sV\u5300
p1920
F7.175505693763768e-06
sV\u5783
p1921
F2.1526517081291305e-05
sV\u9002
p1922
F0.0001793876423440942
sV\u5987
p1923
F9.328157401892898e-05
sV\u5a06
p1924
F7.175505693763768e-06
sV\u7f08
p1925
F2.1526517081291305e-05
sV\u5c0a
p1926
F0.00010045707971269275
sV\u608d
p1927
F4.305303416258261e-05
sV\u660e
p1928
F0.0007749546149264869
sV\u8f93
p1929
F6.457955124387392e-05
sV\u5197
p1930
F1.4351011387527537e-05
sV\u7699
p1931
F7.175505693763768e-06
sV\u5b9b
p1932
F9.328157401892898e-05
sV\u989d
p1933
F0.00017221213665033044
sV\u591c
p1934
F0.000896938211720471
sV\u6320
p1935
F1.4351011387527537e-05
sV\u67a3
p1936
F2.1526517081291305e-05
sV"
p1937
F0.01648931208426914
sV\u73ab
p1938
F7.175505693763768e-06
sV\u70ad
p1939
F3.587752846881884e-05
sV\u75af
p1940
F0.00018656314803785796
sV\u643a
p1941
F7.175505693763768e-06
sV\u8dbf
p1942
F2.1526517081291305e-05
sV\u4e3e
p1943
F0.0002439671935879681
sV\u8c61
p1944
F0.0003157222505256058
sV\u57c3
p1945
F2.1526517081291305e-05
sV\u94c5
p1946
F7.175505693763768e-06
sV\u5a46
p1947
F0.0003946528131570072
sV\u7ec9
p1948
F2.1526517081291305e-05
sV\u7236
p1949
F0.0007677791092327231
sV\u653e
p1950
F0.00043770584731958986
sV\u614c
p1951
F0.00014351011387527535
sV\u85cf
p1952
F0.00027266921636302316
sV\u864e
p1953
F9.328157401892898e-05
sV\u6cd5
p1954
F0.000401828318850771
sV\u9738
p1955
F7.175505693763768e-06
sV\u745a
p1956
F1.4351011387527537e-05
sV\u6062
p1957
F3.587752846881884e-05
sV\u8f68
p1958
F1.4351011387527537e-05
sV\u53eb
p1959
F0.0009686932686581086
sV\u8c6a
p1960
F9.328157401892898e-05
sV\u70ed
p1961
F0.000681673040907558
sV\u916c
p1962
F7.175505693763768e-06
sV\u95ef
p1963
F0.0011552564166959667
sVi
p1964
F0.00045923236440088117
sV\u6276
p1965
F9.328157401892898e-05
sV\u8bfb
p1966
F0.0003372487676068971
sV\u697c
p1967
F5.0228539856346375e-05
sV\u6e7e
p1968
F7.175505693763768e-06
sV\u5201
p1969
F3.587752846881884e-05
sV\u9082
p1970
F7.175505693763768e-06
sV\u7405
p1971
F1.4351011387527537e-05
sV\u5584
p1972
F0.0003731262960757159
sV\u5907
p1973
F0.00022244067650667681
sV\u54e6
p1974
F7.893056263140145e-05
sV\u5f88
p1975
F0.0016790683323407217
sV\u9996
p1976
F0.00012915910248774784
sV\u800d
p1977
F4.305303416258261e-05
sV\u6f13
p1978
F7.175505693763768e-06
sV\u8892
p1979
F7.175505693763768e-06
sV\u8d94
p1980
F1.4351011387527537e-05
sV\u549a
p1981
F2.1526517081291305e-05
sV\u5e9e
p1982
F3.587752846881884e-05
sV\u63a0
p1983
F4.305303416258261e-05
sV\u80a2
p1984
F2.8702022775055073e-05
sV\u8425
p1985
F2.1526517081291305e-05
sV\u65a4
p1986
F2.8702022775055073e-05
sV\u8e29
p1987
F0.00011480809110022029
sV\u8fa8
p1988
F7.893056263140145e-05
sV\u732b
p1989
F7.175505693763768e-05
sV\u7a46
p1990
F2.1526517081291305e-05
sV\u51ac
p1991
F0.0001578611252628029
sV\u552f
p1992
F0.00027266921636302316
sV\u76ae
p1993
F0.00048075888148217243
sV\u5ec9
p1994
F2.1526517081291305e-05
sV\u961f
p1995
F0.00020808966511914927
sV\u683d
p1996
F2.8702022775055073e-05
sV\u5c4a
p1997
F5.0228539856346375e-05
sV\u5947
p1998
F0.0002870202277505507
sV\u634b
p1999
F7.175505693763768e-06
sV\u7cca
p2000
F0.00021526517081291304
sV\u604d
p2001
F7.175505693763768e-05
sV\u654f
p2002
F0.00010045707971269275
sV\u814c
p2003
F1.4351011387527537e-05
sV\u5e26
p2004
F0.0009830442800456362
sV\u4f53
p2005
F0.0006457955124387391
sV\u68d2
p2006
F2.8702022775055073e-05
sV\u65cf
p2007
F2.1526517081291305e-05
sV\u5f25
p2008
F0.00010763258540645652
sV\u7b5b
p2009
F7.175505693763768e-06
sV\u785d
p2010
F7.175505693763768e-06
sV\u7ede
p2011
F4.305303416258261e-05
sV\u536b
p2012
F6.457955124387392e-05
sV\u6cea
p2013
F0.0003444242733006609
sV\u706d
p2014
F0.00012915910248774784
sV\u76fe
p2015
F3.587752846881884e-05
sV\u9a71
p2016
F3.587752846881884e-05
sV\u5df4
p2017
F0.0002511426992817319
sV\u6177
p2018
F5.0228539856346375e-05
sV\u6b7b
p2019
F0.0014996806899966275
sV\u7f81
p2020
F2.1526517081291305e-05
sV\u9083
p2021
F7.175505693763768e-06
sV\u5385
p2022
F1.4351011387527537e-05
sV\u5e87
p2023
F7.175505693763768e-06
sV\u5256
p2024
F2.1526517081291305e-05
sV\u878d
p2025
F2.8702022775055073e-05
sV\u610e
p2026
F7.175505693763768e-06
sV\u4f20
p2027
F0.00022961618220044059
sV\u5199
p2028
F0.00048075888148217243
sV\u5018
p2029
F1.4351011387527537e-05
sV\u5c9b
p2030
F1.4351011387527537e-05
sV\u7a9f
p2031
F2.1526517081291305e-05
sV\u60a3
p2032
F6.457955124387392e-05
sV\u8bb7
p2033
F7.175505693763768e-06
sV\u63a5
p2034
F0.0006386200067449754
sV\u4ea7
p2035
F0.00014351011387527535
sV\u54ab
p2036
F7.175505693763768e-06
sV\u9706
p2037
F1.4351011387527537e-05
sV\u97ad
p2038
F3.587752846881884e-05
sV\u562c
p2039
F7.175505693763768e-06
sV\u72af
p2040
F5.0228539856346375e-05
sV\u73ed
p2041
F0.0002439671935879681
sV\u6536
p2042
F0.00043770584731958986
sV\u8038
p2043
F7.175505693763768e-05
sV\u6cbb
p2044
F0.00012915910248774784
sV\u633a
p2045
F0.00022961618220044059
sV\u5948
p2046
F2.8702022775055073e-05
sV\u5440
p2047
F8.610606832516522e-05
sV\u7ec7
p2048
F2.8702022775055073e-05
sV\u79c9
p2049
F2.1526517081291305e-05
sV\u906d
p2050
F7.893056263140145e-05
sV\u82cf
p2051
F4.305303416258261e-05
sV\u614e
p2052
F6.457955124387392e-05
sV\u8dd1
p2053
F0.0005453384327260463
sV\u8bd5
p2054
F0.00012915910248774784
sV\u76d7
p2055
F3.587752846881884e-05
sV\u9556
p2056
F7.175505693763768e-06
sV\u535a
p2057
F2.8702022775055073e-05
sV\u603b
p2058
F0.0012126604622460769
sV\u7adf
p2059
F0.00035159977899442465
sV\u795e
p2060
F0.0007319015807639044
sV\u53c2
p2061
F0.00010045707971269275
sV\u6d66
p2062
F3.587752846881884e-05
sV\u8868
p2063
F0.0005453384327260463
sV\u6b6a
p2064
F0.00011480809110022029
sV\u77ed
p2065
F0.00014351011387527535
sV\u566c
p2066
F7.175505693763768e-06
sV\u516e
p2067
F0.0003444242733006609
sV\u5df1
p2068
F0.0012844155191837144
sV\u58f3
p2069
F5.0228539856346375e-05
sV\u7f72
p2070
F1.4351011387527537e-05
sV\u7b14
p2071
F0.000308546744831842
sV\u963f
p2072
F0.0003157222505256058
sVx
p2073
F0.00011480809110022029
sV\u6cfb
p2074
F1.4351011387527537e-05
sV\u637a
p2075
F7.175505693763768e-06
sV\u8ffd
p2076
F0.00021526517081291304
sV\u5014
p2077
F1.4351011387527537e-05
sV\u9501
p2078
F0.00010045707971269275
sV\u5480
p2079
F2.1526517081291305e-05
sV\u9003
p2080
F0.00012198359679398405
sV\u6c6a
p2081
F1.4351011387527537e-05
sV\u5305
p2082
F0.000308546744831842
sV\u5c97
p2083
F7.175505693763768e-06
sV\u9888
p2084
F5.0228539856346375e-05
sV\u670d
p2085
F0.000308546744831842
sV\u620f
p2086
F7.175505693763768e-05
sV\u516c
p2087
F0.0006386200067449754
sV\u6813
p2088
F7.175505693763768e-06
sV\u55ef
p2089
F7.175505693763768e-06
sV\u9119
p2090
F6.457955124387392e-05
sV\u539a
p2091
F0.00041617933023829854
sV\u7f1d
p2092
F0.00010763258540645652
sV\u5e9c
p2093
F2.1526517081291305e-05
sV\u5a1f
p2094
F7.175505693763768e-06
sV\u9ec4
p2095
F0.00035159977899442465
sV\u6325
p2096
F0.00012915910248774784
sV\u62a4
p2097
F0.00016503663095656667
sV\u4e27
p2098
F0.00010763258540645652
sV\u6da6
p2099
F6.457955124387392e-05
sV\u542b
p2100
F0.00013633460818151158
sV\u8baa
p2101
F5.0228539856346375e-05
sV\u972d
p2102
F7.175505693763768e-06
sV\u60b8
p2103
F2.8702022775055073e-05
sV\u63ba
p2104
F3.587752846881884e-05
sV\u5fa1
p2105
F7.175505693763768e-06
sV\u57c2
p2106
F7.175505693763768e-06
sV\u5949
p2107
F4.305303416258261e-05
sV\u5934
p2108
F0.003609279363963175
sV\u6d51
p2109
F0.00010763258540645652
sV\u96f9
p2110
F7.175505693763768e-06
sV\u6fd2
p2111
F4.305303416258261e-05
sV\u55d6
p2112
F2.8702022775055073e-05
sV\u5f8a
p2113
F2.1526517081291305e-05
sV\u7edc
p2114
F2.8702022775055073e-05
sV\u8151
p2115
F7.175505693763768e-06
sV\u526f
p2116
F0.00010045707971269275
sV\u5cf0
p2117
F2.8702022775055073e-05
sV\u65f6
p2118
F0.003372487676068971
sV\u8179
p2119
F8.610606832516522e-05
sV\u80f8
p2120
F0.00020808966511914927
sV\u8f7d
p2121
F7.175505693763768e-05
sV\u8eab
p2122
F0.001356170576121352
sV\u9500
p2123
F6.457955124387392e-05
sV\u9602
p2124
F7.175505693763768e-06
sV\u9f87
p2125
F7.175505693763768e-06
sV\u5c06
p2126
F0.0007175505693763768
sV\u638f
p2127
F2.1526517081291305e-05
sV\u600e
p2128
F0.0005596894441135739
sV\u7099
p2129
F7.175505693763768e-06
sV\u521a
p2130
F0.0003731262960757159
sV\u62a5
p2131
F0.0002870202277505507
sV\u6324
p2132
F7.893056263140145e-05
sV\u4fa7
p2133
F5.7404045550110146e-05
sV\u8c26
p2134
F1.4351011387527537e-05
sV\u6a2a
p2135
F0.0001578611252628029
sV\u73af
p2136
F0.00012198359679398405
sV\u62dc
p2137
F6.457955124387392e-05
sV\u7cb1
p2138
F1.4351011387527537e-05
sV\u8e09
p2139
F3.587752846881884e-05
sV\u67b7
p2140
F1.4351011387527537e-05
sV\u4f88
p2141
F7.175505693763768e-06
sV\u8138
p2142
F0.0014925051843028636
sV\u4f3c
p2143
F0.0008251831547828333
sV\u6bbf
p2144
F1.4351011387527537e-05
sV\u94c1
p2145
F0.00022244067650667681
sV\u71c3
p2146
F0.00010763258540645652
sV\u7948
p2147
F5.0228539856346375e-05
sV\u65cb
p2148
F0.00010763258540645652
sV\u63cf
p2149
F2.8702022775055073e-05
sV\u8d50
p2150
F2.1526517081291305e-05
sV\u4e52
p2151
F2.8702022775055073e-05
sV\u70d9
p2152
F3.587752846881884e-05
sV\u7edd
p2153
F0.0006027424782761565
sV\u3002
p2154
F0.03073986639208398
sV\u585e
p2155
F0.00011480809110022029
sV\u8865
p2156
F0.00015068561956903912
sV\u81e3
p2157
F1.4351011387527537e-05
sV\u793a
p2158
F0.0002439671935879681
sV\u82e5
p2159
F0.00027266921636302316
sV\u8364
p2160
F1.4351011387527537e-05
sV\u75eb
p2161
F7.175505693763768e-06
sV\u56ed
p2162
F2.8702022775055073e-05
sV\u9f13
p2163
F0.0001578611252628029
sV\u53ef
p2164
F0.002353565867554516
sV\u906e
p2165
F5.0228539856346375e-05
sV\u5e72
p2166
F0.0008323586604765971
sV\u60f9
p2167
F2.1526517081291305e-05
sV\u6dfb
p2168
F9.328157401892898e-05
sV\u827a
p2169
F4.305303416258261e-05
sV\u4efd
p2170
F0.00010045707971269275
sV\u586b
p2171
F0.00010045707971269275
sV\u6d94
p2172
F1.4351011387527537e-05
sV\u5401
p2173
F0.00010045707971269275
sV\u7682
p2174
F3.587752846881884e-05
sV\u7384
p2175
F6.457955124387392e-05
sV\u9988
p2176
F7.175505693763768e-06
sV\u8c11
p2177
F7.175505693763768e-06
sV\u4e92
p2178
F8.610606832516522e-05
sV\u5019
p2179
F0.00021526517081291304
sV\u7198
p2180
F7.175505693763768e-06
sV\u5e1d
p2181
F7.175505693763768e-06
sV\u589e
p2182
F5.7404045550110146e-05
sV\u6421
p2183
F1.4351011387527537e-05
sV\u9171
p2184
F3.587752846881884e-05
sV\u6123
p2185
F7.175505693763768e-06
sV\u6ca6
p2186
F2.8702022775055073e-05
sV\u6829
p2187
F1.4351011387527537e-05
sV\u752b
p2188
F7.175505693763768e-06
sV\u562d
p2189
F5.7404045550110146e-05
sV\u77ac
p2190
F6.457955124387392e-05
sV\u90ae
p2191
F2.1526517081291305e-05
sV\u5c31
p2192
F0.005403155787404117
sV\u53c9
p2193
F1.4351011387527537e-05
sV\u7eb2
p2194
F1.4351011387527537e-05
sV\u5bb4
p2195
F7.175505693763768e-06
sV\u8737
p2196
F2.8702022775055073e-05
sV9
p2197
F7.175505693763768e-06
sV\u6d3b
p2198
F0.0009902197857394
sV\u8e3d
p2199
F1.4351011387527537e-05
sV\u6ecb
p2200
F4.305303416258261e-05
sV\u76f4
p2201
F0.0008682361889454159
sV\u5143
p2202
F4.305303416258261e-05
sV\u634f
p2203
F0.00010045707971269275
sV\u80ce
p2204
F7.893056263140145e-05
sV\u6bd4
p2205
F0.0007247260750701406
sV\u5757
p2206
F0.0005238119156447551
sV\u98de
p2207
F0.00027266921636302316
sV\u65e0
p2208
F0.0025186024985110827
sV\u8f67
p2209
F1.4351011387527537e-05
sV\u8650
p2210
F2.1526517081291305e-05
sV\u6869
p2211
F2.8702022775055073e-05
sV\u5c71
p2212
F0.0007247260750701406
sV\u6e29
p2213
F0.0004951098928697
sV\u5973
p2214
F0.003336610147600152
sV\u832b
p2215
F0.00012915910248774784
sV\u5600
p2216
F2.1526517081291305e-05
sV\u6caa
p2217
F6.457955124387392e-05
sV\u5185
p2218
F0.0007749546149264869
sV\u5b89
p2219
F0.0006242689953574478
sV\u840c
p2220
F6.457955124387392e-05
sV\u630e
p2221
F1.4351011387527537e-05
sV\u8f91
p2222
F2.1526517081291305e-05
sV\u6e10
p2223
F0.0001578611252628029
sV\u8a93
p2224
F7.175505693763768e-05
sV\u6d12
p2225
F0.00012198359679398405
sV\u952f
p2226
F0.00011480809110022029
sV\u9716
p2227
F7.175505693763768e-06
sV\u5218
p2228
F7.175505693763768e-06
sV\u711a
p2229
F1.4351011387527537e-05
sV\u56db
p2230
F0.0006099179839699203
sV\u589f
p2231
F7.175505693763768e-06
sV\u7f04
p2232
F2.8702022775055073e-05
sV\u6620
p2233
F2.8702022775055073e-05
sV\u6ca7
p2234
F1.4351011387527537e-05
sV\u4f26
p2235
F5.0228539856346375e-05
sV\u8ba9
p2236
F0.0016216642867906115
sV\u542c
p2237
F0.0007964811320077782
sV\u70af
p2238
F3.587752846881884e-05
sV\u732e
p2239
F4.305303416258261e-05
sV\u5ab3
p2240
F7.175505693763768e-06
sV\u7834
p2241
F0.0004520568587071174
sV\u83b9
p2242
F7.175505693763768e-06
sV\u8e2a
p2243
F9.328157401892898e-05
sV\u6b3e
p2244
F7.175505693763768e-05
sV\u9640
p2245
F7.175505693763768e-06
sV\u52c3
p2246
F0.00011480809110022029
sV\u86cb
p2247
F6.457955124387392e-05
sV\u538b
p2248
F0.0003731262960757159
sV\u634e
p2249
F3.587752846881884e-05
sV\u8fd1
p2250
F0.0006242689953574478
sV\u4e50
p2251
F0.00045923236440088117
sV\u8854
p2252
F7.175505693763768e-06
sV\u54d7
p2253
F7.175505693763768e-05
sV\u53d9
p2254
F1.4351011387527537e-05
sV\u9edb
p2255
F7.175505693763768e-06
sV\u515a
p2256
F2.8702022775055073e-05
sV\u98df
p2257
F0.00032289775621936956
sV\u62e3
p2258
F7.175505693763768e-06
sV\u6562
p2259
F0.00033007326191313333
sV\u6064
p2260
F7.175505693763768e-06
sV\u8f66
p2261
F0.001076325854064565
sV\u79d1
p2262
F2.8702022775055073e-05
sV\u6377
p2263
F2.8702022775055073e-05
sV\u95ed
p2264
F7.175505693763768e-05
sV\u5ff1
p2265
F3.587752846881884e-05
sV\u83e9
p2266
F2.1526517081291305e-05
sV\u6212
p2267
F0.00010763258540645652
sV\u8776
p2268
F1.4351011387527537e-05
sV\u4efb
p2269
F0.000588391466888629
sV\u817a
p2270
F1.4351011387527537e-05
sV\u7701
p2271
F5.7404045550110146e-05
sV\u5203
p2272
F7.175505693763768e-06
sV\u5582
p2273
F0.00015068561956903912
sV\u7b97
p2274
F0.0002654937106692594
sV\u7c07
p2275
F3.587752846881884e-05
sV\u998a
p2276
F7.175505693763768e-06
sV\u600f
p2277
F2.8702022775055073e-05
sV\u838e
p2278
F1.4351011387527537e-05
sV\u4f11
p2279
F0.00012915910248774784
sV\u6e90
p2280
F8.610606832516522e-05
sV\u70c2
p2281
F0.00016503663095656667
sV\u5417
p2282
F0.0006744975352137942
sV\u5319
p2283
F7.175505693763768e-06
sV\u9c9c
p2284
F0.0001793876423440942
sV\u5b9e
p2285
F0.0006888485466013218
sV\u8721
p2286
F1.4351011387527537e-05
sV\u80a4
p2287
F7.893056263140145e-05
sV\u762b
p2288
F3.587752846881884e-05
sV\uff08
p2289
F7.175505693763768e-06
sV\u54ac
p2290
F7.893056263140145e-05
sV\u53ae
p2291
F3.587752846881884e-05
sV\u5f31
p2292
F0.00044488135301335363
sV\u7a33
p2293
F0.00012915910248774784
sV\u78b4
p2294
F1.4351011387527537e-05
sV\u67b6
p2295
F0.0001793876423440942
sV\u82b8
p2296
F1.4351011387527537e-05
sV\u4e3b
p2297
F0.0005453384327260463
sV\u6cbc
p2298
F7.175505693763768e-06
sV\u8bbe
p2299
F3.587752846881884e-05
sV\u7741
p2300
F0.00010763258540645652
sV\u96c0
p2301
F4.305303416258261e-05
sV\u5243
p2302
F1.4351011387527537e-05
sV\u5145
p2303
F0.0003157222505256058
sV\u5fc6
p2304
F0.00010045707971269275
sV\u7b49
p2305
F0.00045923236440088117
sV\u8da3
p2306
F0.00014351011387527535
sV\u51cc
p2307
F4.305303416258261e-05
sV\u4f51
p2308
F7.175505693763768e-06
sV\u88d4
p2309
F7.175505693763768e-06
sV\u5bde
p2310
F4.305303416258261e-05
sV\u6761
p2311
F0.0007893056263140145
sV\u6263
p2312
F7.175505693763768e-05
sV\u65e2
p2313
F0.00022961618220044059
sV\u8165
p2314
F5.7404045550110146e-05
sV\u766b
p2315
F2.1526517081291305e-05
sV\u2026
p2316
F0.001241362485021132
sV\u706f
p2317
F0.00012198359679398405
sV\u53ee
p2318
F7.175505693763768e-05
sV\u5f71
p2319
F0.00035159977899442465
sV\u7ef0
p2320
F5.0228539856346375e-05
sV\u5df2
p2321
F0.0017077703551157768
sV\u6cfc
p2322
F9.328157401892898e-05
sV\u8bfe
p2323
F1.4351011387527537e-05
sV\u9700
p2324
F0.0002654937106692594
sV\u5085
p2325
F7.175505693763768e-06
sV\u5e06
p2326
F2.8702022775055073e-05
sV\u818f
p2327
F2.1526517081291305e-05
sV\u4e91
p2328
F7.175505693763768e-05
sV\u4f10
p2329
F8.610606832516522e-05
sV\u6b93
p2330
F7.175505693763768e-06
sV\u7597
p2331
F7.175505693763768e-06
sV\u901a
p2332
F0.0006386200067449754
sV\u7c9d
p2333
F2.1526517081291305e-05
sV\u63a3
p2334
F7.175505693763768e-06
sV\u80a5
p2335
F6.457955124387392e-05
sV\u6124
p2336
F0.0002009141594253855
sV\u57ab
p2337
F3.587752846881884e-05
sV\u682a
p2338
F5.0228539856346375e-05
sV\u552c
p2339
F1.4351011387527537e-05
sV\u522e
p2340
F7.893056263140145e-05
sV\u7eb1
p2341
F5.0228539856346375e-05
sV\u7f30
p2342
F1.4351011387527537e-05
sV\u5bb3
p2343
F0.0001578611252628029
sV\u7934
p2344
F7.175505693763768e-06
sV\u62b9
p2345
F0.00014351011387527535
sV\u8338
p2346
F3.587752846881884e-05
sV:
p2347
F0.00011480809110022029
sV\u6d3c
p2348
F7.175505693763768e-06
sV\u7740
p2349
F0.006393375573143518
sV\u7c41
p2350
F7.175505693763768e-06
sV\u5144
p2351
F6.457955124387392e-05
sV\u73e0
p2352
F0.00010045707971269275
sV\u5ac9
p2353
F2.8702022775055073e-05
sV\u87cb
p2354
F7.175505693763768e-06
sV\u64cd
p2355
F7.175505693763768e-05
sV\u654c
p2356
F7.893056263140145e-05
sV\u624e
p2357
F0.0001578611252628029
sV\u6ed1
p2358
F0.00022244067650667681
sV\u4f50
p2359
F7.175505693763768e-06
sV\u7656
p2360
F1.4351011387527537e-05
sV\u505a
p2361
F0.0005812159611948652
sV\u79df
p2362
F7.175505693763768e-06
sV\u6760
p2363
F2.8702022775055073e-05
sV\u63e3
p2364
F3.587752846881884e-05
sV\u6e3a
p2365
F2.8702022775055073e-05
sV\u4e66
p2366
F0.0005955669725823927
sV\u82bd
p2367
F2.1526517081291305e-05
sV\u77eb
p2368
F1.4351011387527537e-05
sV\u9ae6
p2369
F7.175505693763768e-06
sV\u54ed
p2370
F0.0003444242733006609
sV\u556c
p2371
F7.175505693763768e-06
sV\u5974
p2372
F5.7404045550110146e-05
sV\u65f7
p2373
F1.4351011387527537e-05
sV\u6676
p2374
F7.175505693763768e-05
sV\u82f9
p2375
F7.175505693763768e-06
sV\u6cfd
p2376
F7.175505693763768e-06
sV\u6094
p2377
F7.175505693763768e-05
sV\u5482
p2378
F7.175505693763768e-06
sV\u9005
p2379
F7.175505693763768e-06
sV\u7184
p2380
F6.457955124387392e-05
sV\u5d07
p2381
F6.457955124387392e-05
sV\u5e86
p2382
F0.00019373865373162173
sV\u606d
p2383
F5.0228539856346375e-05
sV\u670b
p2384
F0.00032289775621936956
sV\u988a
p2385
F7.175505693763768e-05
sV\u658c
p2386
F0.000681673040907558
sV\u810f
p2387
F0.00011480809110022029
sV\u4e11
p2388
F0.00012915910248774784
sV\u8815
p2389
F1.4351011387527537e-05
sV\u5219
p2390
F0.00038747730746324345
sV\u5f1b
p2391
F3.587752846881884e-05
sV\u76ee
p2392
F0.0010619748426770376
sV\u5c1d
p2393
F4.305303416258261e-05
sV\u591f
p2394
F0.00013633460818151158
sV\u6323
p2395
F8.610606832516522e-05
sV\u6025
p2396
F0.00041617933023829854
sV\u8d27
p2397
F0.00010045707971269275
sV\u4ea6
p2398
F1.4351011387527537e-05
sV\u8ba8
p2399
F0.00017221213665033044
sV\u542d
p2400
F2.8702022775055073e-05
sV\u5835
p2401
F5.0228539856346375e-05
sV\u501f
p2402
F0.00021526517081291304
sV\u8239
p2403
F4.305303416258261e-05
sV\u80ba
p2404
F7.175505693763768e-05
sV\u79cb
p2405
F7.893056263140145e-05
sV\u5343
p2406
F0.0001793876423440942
sV\u51c4
p2407
F0.00012915910248774784
sV\u7ec6
p2408
F0.0005166364099509913
sV\u5a49
p2409
F2.8702022775055073e-05
sV\u78ca
p2410
F2.1526517081291305e-05
sV\u62ce
p2411
F4.305303416258261e-05
sV\u8e51
p2412
F1.4351011387527537e-05
sV\u4fd0
p2413
F2.1526517081291305e-05
sV\u76d6
p2414
F0.0003444242733006609
sV\u7259
p2415
F0.00022244067650667681
sV\u53d8
p2416
F0.0009758687743518724
sV\u795f
p2417
F2.8702022775055073e-05
sV\u7ade
p2418
F7.175505693763768e-06
sV\u8363
p2419
F7.175505693763768e-05
sV\u54fa
p2420
F1.4351011387527537e-05
sVe
p2421
F0.0003444242733006609
sV\u776b
p2422
F1.4351011387527537e-05
sV\u9875
p2423
F0.0003157222505256058
sV\u6577
p2424
F4.305303416258261e-05
sV\u6279
p2425
F7.175505693763768e-05
sV\u4f7b
p2426
F1.4351011387527537e-05
sV\u60fa
p2427
F7.175505693763768e-06
sV\u6c7d
p2428
F4.305303416258261e-05
sV\u897f
p2429
F0.0009902197857394
sV\u7981
p2430
F7.175505693763768e-05
sV\u5f85
p2431
F0.0004305303416258261
sV\u5589
p2432
F5.7404045550110146e-05
sV\u5408
p2433
F0.0004735833757884087
sV\u888b
p2434
F0.00020808966511914927
sV\u6e8f
p2435
F7.175505693763768e-06
sV\u8010
p2436
F0.00010045707971269275
sV\u6795
p2437
F0.00017221213665033044
sV\u6614
p2438
F1.4351011387527537e-05
sV\u7a97
p2439
F0.00027984472205678693
sV\u5916
p2440
F0.0017221213665033043
sV\u5c18
p2441
F7.893056263140145e-05
sV\uff1a
p2442
F0.0030065368856870187
sV\u6b22
p2443
F0.0006673220295200304
sV\u717d
p2444
F7.175505693763768e-06
sV\u4e24
p2445
F0.0013131175419587695
sV\u94f6
p2446
F5.0228539856346375e-05
sV\u65a9
p2447
F2.1526517081291305e-05
sV\u8428
p2448
F2.8702022775055073e-05
sV\u672a
p2449
F0.0005381629270322826
sV\u7bad
p2450
F7.175505693763768e-06
sV\u7eaf
p2451
F0.0002439671935879681
sV\u54b3
p2452
F7.175505693763768e-05
sV\u9634
p2453
F0.0002870202277505507
sV\u8936
p2454
F7.175505693763768e-06
sV\u6c38
p2455
F0.0004233548359320623
sV\u60bb
p2456
F7.175505693763768e-06
sV\u83bd
p2457
F7.175505693763768e-05
sV\u80b4
p2458
F7.175505693763768e-06
sV\u79c1
p2459
F7.893056263140145e-05
sV\u7840
p2460
F2.8702022775055073e-05
sV\u9b42
p2461
F0.0002870202277505507
sV\u7fc5
p2462
F7.175505693763768e-06
sV\u5e44
p2463
F7.175505693763768e-06
sV\u52c7
p2464
F8.610606832516522e-05
sV\u5146
p2465
F2.1526517081291305e-05
sV\u75c9
p2466
F2.1526517081291305e-05
sV\u5448
p2467
F2.1526517081291305e-05
sV\u68cb
p2468
F2.8702022775055073e-05
sV\u574a
p2469
F7.175505693763768e-06
sV\u6bcd
p2470
F0.0018728069860723434
sV\u8d4e
p2471
F7.175505693763768e-06
sV\u61d1
p2472
F7.175505693763768e-06
sVP
p2473
F0.00011480809110022029
sV\u84d3
p2474
F1.4351011387527537e-05
sV\u8352
p2475
F0.00012915910248774784
sV\u8654
p2476
F5.0228539856346375e-05
sV\u7956
p2477
F5.7404045550110146e-05
sV\u8fea
p2478
F7.175505693763768e-06
sV\u70db
p2479
F2.1526517081291305e-05
sV\u7f5a
p2480
F0.00012198359679398405
sV\u563b
p2481
F1.4351011387527537e-05
sV\u76df
p2482
F2.8702022775055073e-05
sV\u7a74
p2483
F5.0228539856346375e-05
sV\u6860
p2484
F5.0228539856346375e-05
sV\u6ce3
p2485
F0.00010763258540645652
sV\u6b62
p2486
F0.00010763258540645652
sV\u62e7
p2487
F1.4351011387527537e-05
sV\u65e9
p2488
F0.0006744975352137942
sV\u58eb
p2489
F9.328157401892898e-05
sV\u9a6c
p2490
F0.0004735833757884087
sV\u9eef
p2491
F2.1526517081291305e-05
sV\u7d6e
p2492
F0.00011480809110022029
sV\u7070
p2493
F0.00038747730746324345
sV\u97f5
p2494
F7.175505693763768e-06
sV\u6df9
p2495
F2.1526517081291305e-05
sV\u63fd
p2496
F1.4351011387527537e-05
sV\u66ff
p2497
F7.175505693763768e-05
sV\u857e
p2498
F1.4351011387527537e-05
sV\u7901
p2499
F7.175505693763768e-06
sV\u9880
p2500
F7.175505693763768e-06
sV\u566a
p2501
F2.8702022775055073e-05
sV\u7f05
p2502
F7.175505693763768e-06
sV\u5e84
p2503
F5.7404045550110146e-05
sV\u5207
p2504
F0.000617093489663684
sV\u5509
p2505
F7.175505693763768e-06
sV\u9488
p2506
F0.00012198359679398405
sV\u8e0f
p2507
F5.7404045550110146e-05
sV\u8111
p2508
F0.00016503663095656667
sV\u8c34
p2509
F7.175505693763768e-06
sV\u6392
p2510
F0.00018656314803785796
sV\u5996
p2511
F2.1526517081291305e-05
sV\u7c98
p2512
F2.8702022775055073e-05
sV\u901b
p2513
F4.305303416258261e-05
sV\u531d
p2514
F7.175505693763768e-05
sV\u561f
p2515
F9.328157401892898e-05
sV\u7c3f
p2516
F7.175505693763768e-06
sV\u8ba2
p2517
F1.4351011387527537e-05
sV\u7792
p2518
F5.7404045550110146e-05
sV\u4ea4
p2519
F0.000401828318850771
sV\u6170
p2520
F7.175505693763768e-05
sV\u9e2d
p2521
F2.1526517081291305e-05
sV\u67aa
p2522
F0.0006386200067449754
sV\u8349
p2523
F0.0001793876423440942
sV\u73b2
p2524
F2.1526517081291305e-05
sV\u8d39
p2525
F9.328157401892898e-05
sV\u6cb8
p2526
F4.305303416258261e-05
sV\u803b
p2527
F2.1526517081291305e-05
sV\u633d
p2528
F8.610606832516522e-05
sV\u62bc
p2529
F2.1526517081291305e-05
sV\u5bc2
p2530
F7.893056263140145e-05
sV\u7ec4
p2531
F2.8702022775055073e-05
sV\u7247
p2532
F0.0005525139384198101
sV\u51c6
p2533
F0.00016503663095656667
sV\u54c8
p2534
F0.00017221213665033044
sV\u4e4f
p2535
F8.610606832516522e-05
sV\u6151
p2536
F2.1526517081291305e-05
sV\u63d2
p2537
F0.00015068561956903912
sV\u7751
p2538
F2.8702022775055073e-05
sV\u8be2
p2539
F5.7404045550110146e-05
sV\u7ea7
p2540
F0.00011480809110022029
sV\u6267
p2541
F0.00013633460818151158
sV\u61e6
p2542
F5.0228539856346375e-05
sV\u786b
p2543
F7.175505693763768e-06
sV\u5dee
p2544
F0.0002511426992817319
sV\u5171
p2545
F7.893056263140145e-05
sV\u5473
p2546
F0.0004951098928697
sV\u53f2
p2547
F3.587752846881884e-05
sV\u56f4
p2548
F0.00021526517081291304
sV\u6155
p2549
F6.457955124387392e-05
sV\u62fc
p2550
F0.00014351011387527535
sV\u5f04
p2551
F0.0003587752846881884
sV\u7387
p2552
F6.457955124387392e-05
sV\u9006
p2553
F2.1526517081291305e-05
sV\u9489
p2554
F5.0228539856346375e-05
sV\u9508
p2555
F2.1526517081291305e-05
sV\u8212
p2556
F7.175505693763768e-05
sV\u8695
p2557
F1.4351011387527537e-05
sV\u6714
p2558
F1.4351011387527537e-05
sV\u5b97
p2559
F3.587752846881884e-05
sV\u7816
p2560
F1.4351011387527537e-05
sV\u8e05
p2561
F4.305303416258261e-05
sV\u519b
p2562
F0.00010763258540645652
sV\u5e1a
p2563
F2.8702022775055073e-05
sV\u529d
p2564
F7.175505693763768e-05
sV\u731c
p2565
F0.00010763258540645652
sV\u779f
p2566
F7.175505693763768e-06
sV\u541e
p2567
F0.00013633460818151158
sV\u6da3
p2568
F2.1526517081291305e-05
sV\u4f24
p2569
F0.0006242689953574478
sV\u63a7
p2570
F2.1526517081291305e-05
sV\u6026
p2571
F2.1526517081291305e-05
sV\u64a9
p2572
F1.4351011387527537e-05
sV\u7b2c
p2573
F0.0002654937106692594
sV\u74dc
p2574
F5.0228539856346375e-05
sV\u7130
p2575
F3.587752846881884e-05
sV\u55b3
p2576
F1.4351011387527537e-05
sV\u6bb7
p2577
F3.587752846881884e-05
sV\u6cb9
p2578
F0.00027984472205678693
sV\u8d38
p2579
F2.1526517081291305e-05
sV\u4e3a
p2580
F0.0028917287945867984
sV\u62bd
p2581
F0.0003587752846881884
sV\u58c1
p2582
F5.0228539856346375e-05
sV\u5272
p2583
F4.305303416258261e-05
sV\u6b4c
p2584
F0.0001578611252628029
sV\u4fcf
p2585
F5.0228539856346375e-05
sV\u60d1
p2586
F0.00016503663095656667
sV\u8150
p2587
F7.893056263140145e-05
sV\u6252
p2588
F1.4351011387527537e-05
sV\u4f0f
p2589
F0.00010045707971269275
sV8
p2590
F1.4351011387527537e-05
sV\u7cd9
p2591
F7.175505693763768e-06
sV\u9965
p2592
F4.305303416258261e-05
sV\u51db
p2593
F2.1526517081291305e-05
sV\u7ea6
p2594
F0.0002439671935879681
sV\u535c
p2595
F4.305303416258261e-05
sV\u57df
p2596
F5.0228539856346375e-05
sV\u4ee5
p2597
F0.0017221213665033043
sV\u6467
p2598
F5.7404045550110146e-05
sV\u5fbd
p2599
F7.175505693763768e-06
sV\u7aed
p2600
F7.175505693763768e-05
sV\u5b6c
p2601
F1.4351011387527537e-05
sV\u6413
p2602
F6.457955124387392e-05
sV\u5170
p2603
F7.175505693763768e-06
sV\u7272
p2604
F2.8702022775055073e-05
sV\u9774
p2605
F7.175505693763768e-06
sV\u6458
p2606
F2.1526517081291305e-05
sV\u6876
p2607
F2.8702022775055073e-05
sV\u6d78
p2608
F7.893056263140145e-05
sV\u81fb
p2609
F7.175505693763768e-06
sV\u62fd
p2610
F2.1526517081291305e-05
sV\u837c
p2611
F7.175505693763768e-06
sV\u67ff
p2612
F7.175505693763768e-06
sV\u7801
p2613
F4.305303416258261e-05
sV\u7980
p2614
F7.175505693763768e-06
sV\u9a82
p2615
F0.0001578611252628029
sV\u5e05
p2616
F7.175505693763768e-06
sV\u9f84
p2617
F8.610606832516522e-05
sV\u5409
p2618
F4.305303416258261e-05
sV\u6f0f
p2619
F7.175505693763768e-05
sV\u8513
p2620
F2.8702022775055073e-05
sV\u6292
p2621
F2.1526517081291305e-05
sV\u9896
p2622
F2.1526517081291305e-05
sV\u521d
p2623
F0.0004735833757884087
sV\u771f
p2624
F0.001076325854064565
sV\u949e
p2625
F1.4351011387527537e-05
sV\u6821
p2626
F0.0001578611252628029
sV\u8d23
p2627
F9.328157401892898e-05
sV\u4e25
p2628
F0.00025831820497549567
sV\u8327
p2629
F1.4351011387527537e-05
sV\u60a6
p2630
F3.587752846881884e-05
sV\u592b
p2631
F0.0002870202277505507
sV\u6273
p2632
F5.7404045550110146e-05
sV\u5f2f
p2633
F0.00014351011387527535
sV\u7cae
p2634
F0.00012198359679398405
sV\u51b0
p2635
F0.0002870202277505507
sV\u7533
p2636
F1.4351011387527537e-05
sV\u52b2
p2637
F0.00011480809110022029
sV\u9635
p2638
F0.00041617933023829854
sV\u571f
p2639
F0.000308546744831842
sV\u6db8
p2640
F7.175505693763768e-06
sV\u4eba
p2641
F0.009543422572705811
sV\u63bc
p2642
F7.175505693763768e-06
sV\u79c0
p2643
F9.328157401892898e-05
sV\u5ac2
p2644
F7.175505693763768e-06
sV\u5e45
p2645
F2.1526517081291305e-05
sV\u5347
p2646
F7.893056263140145e-05
sV\u76ca
p2647
F5.7404045550110146e-05
sV\u4f4f
p2648
F0.0008682361889454159
sV\u664c
p2649
F2.8702022775055073e-05
sV\u62d2
p2650
F0.00015068561956903912
sV\u6655
p2651
F3.587752846881884e-05
sV\u67d4
p2652
F0.000308546744831842
sV\u5b57
p2653
F0.00045923236440088117
sV\u575f
p2654
F7.175505693763768e-05
sV\u8861
p2655
F2.8702022775055073e-05
sV\u6dd1
p2656
F7.175505693763768e-06
sV\u7fe0
p2657
F7.175505693763768e-06
sV\u6367
p2658
F0.00010763258540645652
sV\u60e6
p2659
F7.175505693763768e-06
sV\u6469
p2660
F1.4351011387527537e-05
sV\u65e8
p2661
F7.175505693763768e-06
sV\u9a6d
p2662
F2.1526517081291305e-05
sV\u9573
p2663
F7.175505693763768e-06
sV\u9675
p2664
F7.175505693763768e-06
sV\u907f
p2665
F0.00018656314803785796
sV\u6c79
p2666
F3.587752846881884e-05
sV\u6bd5
p2667
F0.00013633460818151158
sV\u817b
p2668
F5.7404045550110146e-05
sV\u677f
p2669
F0.00011480809110022029
sV\u5b81
p2670
F0.00010045707971269275
sV\u7a00
p2671
F0.00010763258540645652
sV\u5c04
p2672
F5.7404045550110146e-05
sV\u5306
p2673
F0.000308546744831842
sV\u4f0e
p2674
F1.4351011387527537e-05
sV\u6210
p2675
F0.002504251487123555
sV\u7897
p2676
F9.328157401892898e-05
sV\u9f99
p2677
F0.0001793876423440942
sV\u8885
p2678
F1.4351011387527537e-05
sV\u529b
p2679
F0.0009041137174142348
sV\u949f
p2680
F0.00016503663095656667
sV\u8760
p2681
F7.175505693763768e-06
sV\u8ba1
p2682
F0.00018656314803785796
sV\u4fdd
p2683
F0.0002009141594253855
sV\u7f2e
p2684
F7.175505693763768e-06
sV\u5230
p2685
F0.004441638024439773
sV\u75b5
p2686
F2.1526517081291305e-05
sV\u5434
p2687
F0.000803656637701542
sV\u8fb9
p2688
F0.0007821301206202507
sV\u6e38
p2689
F0.00010763258540645652
sV\u8d3a
p2690
F2.1526517081291305e-05
sV\u5a40
p2691
F7.175505693763768e-06
sV\u7ec3
p2692
F0.00010045707971269275
sV\u5dc5
p2693
F1.4351011387527537e-05
sV\u9648
p2694
F5.0228539856346375e-05
sV\u554a
p2695
F7.175505693763768e-06
sV\u884c
p2696
F0.0007103750636826131
sV\u4f4e
p2697
F0.0003659507903819522
sV\u85d5
p2698
F7.175505693763768e-06
sV\u6454
p2699
F5.0228539856346375e-05
sV\u7b56
p2700
F7.175505693763768e-05
sV\u5fd9
p2701
F0.0002654937106692594
sV\u51dd
p2702
F5.7404045550110146e-05
sV\u505c
p2703
F0.00023679168789420436
sV\u54df
p2704
F7.175505693763768e-06
sV\u975e
p2705
F0.0003659507903819522
sV\u8be1
p2706
F4.305303416258261e-05
sV\u4ee3
p2707
F0.0003587752846881884
sV\u8eba
p2708
F0.00013633460818151158
sV\u6c64
p2709
F7.175505693763768e-05
sV\u80e7
p2710
F3.587752846881884e-05
sV\u5f84
p2711
F5.7404045550110146e-05
sV\u6668
p2712
F0.00017221213665033044
sV\u8d66
p2713
F7.175505693763768e-06
sV\u786c
p2714
F0.0003444242733006609
sV\u7cef
p2715
F7.175505693763768e-06
sV\u7f6e
p2716
F0.00012198359679398405
sV\u9a86
p2717
F7.175505693763768e-06
sV\u8ff9
p2718
F0.00022961618220044059
sV\u607c
p2719
F0.00011480809110022029
sV\u677e
p2720
F0.0002870202277505507
sV\u5e03
p2721
F0.000308546744831842
sV\u5982
p2722
F0.0023607413732482795
sV\uff1b
p2723
F0.0026190595782237753
sV\u5386
p2724
F0.000308546744831842
sV\u7709
p2725
F0.00015068561956903912
sV\u558a
p2726
F0.0002009141594253855
sV\u690d
p2727
F2.1526517081291305e-05
sV\u6c0f
p2728
F7.175505693763768e-06
sV\u6f8e
p2729
F1.4351011387527537e-05
sV\u6311
p2730
F0.00011480809110022029
sV\u6613
p2731
F0.00015068561956903912
sV\u521b
p2732
F7.175505693763768e-05
sV\u6dcb
p2733
F5.7404045550110146e-05
sV\u541f
p2734
F7.175505693763768e-05
sV\u6b21
p2735
F0.000588391466888629
sV\u6e23
p2736
F2.1526517081291305e-05
sV\u8d25
p2737
F0.00013633460818151158
sV\u6027
p2738
F0.0007390770864576682
sV\u85aa
p2739
F1.4351011387527537e-05
sV\u592d
p2740
F7.175505693763768e-06
sV\u5fae
p2741
F0.0003659507903819522
sV\u9633
p2742
F0.00020808966511914927
sV\u51b2
p2743
F0.00027266921636302316
sV\u7535
p2744
F0.0002009141594253855
sV\u6837
p2745
F0.001363346081815116
sV\u8bb6
p2746
F2.1526517081291305e-05
sV\u5a74
p2747
F6.457955124387392e-05
sV\u9b41
p2748
F2.8702022775055073e-05
sV\u56ca
p2749
F4.305303416258261e-05
sV\u5047
p2750
F0.0003946528131570072
sV\u9f20
p2751
F2.8702022775055073e-05
sV\u76c8
p2752
F6.457955124387392e-05
sV\u75ca
p2753
F2.1526517081291305e-05
sV\u8fce
p2754
F0.0001578611252628029
sV\u62d0
p2755
F3.587752846881884e-05
sV\u6653
p2756
F0.00010763258540645652
sV\u61d2
p2757
F0.0001793876423440942
sV\u6078
p2758
F7.175505693763768e-06
sV\u9ed8
p2759
F0.0003157222505256058
sV\u725b
p2760
F0.00012198359679398405
sV\u915d
p2761
F2.1526517081291305e-05
sV\u5cfb
p2762
F2.1526517081291305e-05
sV\u745f
p2763
F3.587752846881884e-05
sV\u996d
p2764
F0.00022961618220044059
sV\u5c6f
p2765
F7.175505693763768e-05
sV\u5371
p2766
F6.457955124387392e-05
sV\u72f0
p2767
F4.305303416258261e-05
sV\u8877
p2768
F0.00012915910248774784
sV\u9177
p2769
F0.00012915910248774784
sV\u8dfa
p2770
F2.1526517081291305e-05
sV\u7a81
p2771
F0.0008108321433953058
sV\u5802
p2772
F0.00023679168789420436
sV\u5206
p2773
F0.0010332728199019827
sV\u5708
p2774
F0.00020808966511914927
sV\u6b8b
p2775
F0.00016503663095656667
sV\u540a
p2776
F8.610606832516522e-05
sV\u6e0e
p2777
F1.4351011387527537e-05
sV\u8bf7
p2778
F0.0001793876423440942
sV\u6012
p2779
F0.00032289775621936956
sV\u6495
p2780
F7.893056263140145e-05
sV\u7f18
p2781
F0.00014351011387527535
sV\u739b
p2782
F1.4351011387527537e-05
sV\u5c1a
p2783
F7.175505693763768e-05
sV\u759f
p2784
F7.175505693763768e-06
sV\u6b20
p2785
F7.175505693763768e-05
sV\u4fa3
p2786
F7.175505693763768e-06
sV\u8822
p2787
F0.00012915910248774784
sV\u6ca5
p2788
F7.175505693763768e-06
sV\u8d24
p2789
F2.1526517081291305e-05
sV\u61a7
p2790
F1.4351011387527537e-05
sV\u5730
p2791
F0.008215954019359515
sV\u6728
p2792
F0.000617093489663684
sV\u5bab
p2793
F2.8702022775055073e-05
sV\u642a
p2794
F2.8702022775055073e-05
sV\u5e2e
p2795
F0.00027984472205678693
sV\u52b1
p2796
F1.4351011387527537e-05
sV\u77b3
p2797
F2.1526517081291305e-05
sV\u4f38
p2798
F0.00020808966511914927
sV\u663e
p2799
F0.00045923236440088117
sV\u5ac1
p2800
F7.893056263140145e-05
sV\u5fc3
p2801
F0.003286381607743806
sV\u91c7
p2802
F0.00010045707971269275
sV\u544a
p2803
F0.0003372487676068971
sV\u68cd
p2804
F1.4351011387527537e-05
sV\u4e4e
p2805
F0.0006242689953574478
sV\u8350
p2806
F7.175505693763768e-06
sV\u67d3
p2807
F8.610606832516522e-05
sV\u6052
p2808
F7.175505693763768e-06
sV\u59d7
p2809
F4.305303416258261e-05
sV\u7ed9
p2810
F0.0010619748426770376
sV\u53db
p2811
F7.175505693763768e-06
sV\u618e
p2812
F2.8702022775055073e-05
sV\u515c
p2813
F4.305303416258261e-05
sV\u6ce5
p2814
F0.00011480809110022029
sV\u8d64
p2815
F3.587752846881884e-05
sV\u6768
p2816
F7.175505693763768e-06
sV\u72f1
p2817
F5.7404045550110146e-05
sV\u5370
p2818
F0.0002511426992817319
sV\u77f3
p2819
F0.00011480809110022029
sV\u55e8
p2820
F0.00010045707971269275
sV\u80fd
p2821
F0.0024970759814297912
sV\u817c
p2822
F2.1526517081291305e-05
sV\u667e
p2823
F2.8702022775055073e-05
sV\u5a01
p2824
F0.00010763258540645652
sV\u7b80
p2825
F0.0003444242733006609
sV\u5f03
p2826
F0.00020808966511914927
sV\u9882
p2827
F2.1526517081291305e-05
sV\u5609
p2828
F9.328157401892898e-05
sV\u5782
p2829
F8.610606832516522e-05
sV\u4e8e
p2830
F0.001636015298178139
sV\u6211
p2831
F0.024231682727840244
sV\u6390
p2832
F2.8702022775055073e-05
sV\u6092
p2833
F7.175505693763768e-06
sV\u7a96
p2834
F4.305303416258261e-05
sV\u5f98
p2835
F2.1526517081291305e-05
sV\u731b
p2836
F0.0001578611252628029
sV\u901d
p2837
F1.4351011387527537e-05
sV\u519c
p2838
F6.457955124387392e-05
sV\u751f
p2839
F0.003063940931237129
sV\u6a21
p2840
F0.00016503663095656667
sV\u68a2
p2841
F1.4351011387527537e-05
sV\u6127
p2842
F7.175505693763768e-05
sV\u7d2f
p2843
F0.00015068561956903912
sV\u7231
p2844
F0.002231582270760532
sV\u73b0
p2845
F0.0009041137174142348
sV\u50b2
p2846
F0.0002511426992817319
sV\u5435
p2847
F9.328157401892898e-05
sV\u8e39
p2848
F7.175505693763768e-06
sV\u599e
p2849
F1.4351011387527537e-05
sV\u803d
p2850
F7.175505693763768e-06
sV\u653f
p2851
F0.00010045707971269275
sV\u8446
p2852
F7.175505693763768e-06
sVJ
p2853
F1.4351011387527537e-05
sV\u5c45
p2854
F0.00040900382454453477
sV\u9662
p2855
F8.610606832516522e-05
sV\u884d
p2856
F2.1526517081291305e-05
sV\u8d4f
p2857
F4.305303416258261e-05
sV\u4ece
p2858
F0.0017221213665033043
sV\u6251
p2859
F0.00030137123913807825
sV\u63d0
p2860
F0.0004951098928697
sV\u5957
p2861
F0.00033007326191313333
sV\u7ad6
p2862
F7.175505693763768e-05
sV\u54dd
p2863
F4.305303416258261e-05
sV\u7fd8
p2864
F2.1526517081291305e-05
sV\u56de
p2865
F0.001729296872197068
sV\u6a61
p2866
F1.4351011387527537e-05
sV\u7efa
p2867
F1.4351011387527537e-05
sV\u917d
p2868
F7.175505693763768e-06
sV\u6167
p2869
F2.8702022775055073e-05
sV\u82e6
p2870
F0.0009256402344955261
sV\u53f0
p2871
F0.00011480809110022029
sV\u5475
p2872
F0.00018656314803785796
sV\u95f4
p2873
F0.0011983094508585493
sV\u8ff8
p2874
F4.305303416258261e-05
sV\u66fe
p2875
F0.0002870202277505507
sV\u5883
p2876
F0.00023679168789420436
sV\u5f02
p2877
F0.0002009141594253855
sV\u5b85
p2878
F7.175505693763768e-06
sV\u7687
p2879
F2.1526517081291305e-05
sV\u5506
p2880
F7.175505693763768e-06
sV\u9189
p2881
F8.610606832516522e-05
sV\u6e56
p2882
F1.4351011387527537e-05
sV\u8f8d
p2883
F7.175505693763768e-06
sV\u6591
p2884
F0.00012915910248774784
sV\u6410
p2885
F3.587752846881884e-05
sV\u8712
p2886
F7.175505693763768e-06
sV\u8214
p2887
F7.175505693763768e-06
sV\u5e97
p2888
F0.00018656314803785796
sV\u5d16
p2889
F1.4351011387527537e-05
sV\u5999
p2890
F0.0001578611252628029
sV\u529f
p2891
F8.610606832516522e-05
sV\u6da1
p2892
F7.175505693763768e-06
sV\u66a7
p2893
F2.1526517081291305e-05
sV\u61a9
p2894
F7.175505693763768e-06
sV\u6028
p2895
F0.00015068561956903912
sV\u632a
p2896
F2.1526517081291305e-05
sV\u592e
p2897
F5.7404045550110146e-05
sV\u9732
p2898
F0.00040900382454453477
sV\u6838
p2899
F3.587752846881884e-05
sV\u6b3a
p2900
F3.587752846881884e-05
sV\u62bf
p2901
F3.587752846881884e-05
sV\u813e
p2902
F7.893056263140145e-05
sV\u5c40
p2903
F0.00016503663095656667
sV\u5546
p2904
F6.457955124387392e-05
sV\u51c9
p2905
F0.00012915910248774784
sV\u534a
p2906
F0.0007390770864576682
sV\u4e4c
p2907
F9.328157401892898e-05
sV\u975b
p2908
F7.175505693763768e-06
sV\u503c
p2909
F0.00012198359679398405
sV\u6254
p2910
F8.610606832516522e-05
sV\u94db
p2911
F7.175505693763768e-06
sV\u7f0e
p2912
F1.4351011387527537e-05
sV\u9986
p2913
F2.8702022775055073e-05
sV\u565c
p2914
F1.4351011387527537e-05
sV\u52df
p2915
F7.175505693763768e-06
sV\u715e
p2916
F7.175505693763768e-06
sV\u6de1
p2917
F0.00043770584731958986
sV\u6c60
p2918
F7.175505693763768e-06
sV\u8be5
p2919
F0.00038747730746324345
sV\u6566
p2920
F7.175505693763768e-06
sV\u6068
p2921
F0.0003803018017694797
sV\u7aef
p2922
F0.0002439671935879681
sV\u996e
p2923
F3.587752846881884e-05
sV\u75f1
p2924
F1.4351011387527537e-05
sV\u7470
p2925
F2.8702022775055073e-05
sV\u53f5
p2926
F2.1526517081291305e-05
sV\u4ef7
p2927
F7.893056263140145e-05
sV\u8d76
p2928
F0.00014351011387527535
sV\u62cd
p2929
F0.00018656314803785796
sV\u62ff
p2930
F0.00021526517081291304
sV\u817e
p2931
F0.0001578611252628029
sV\u7a84
p2932
F7.893056263140145e-05
sV\u7586
p2933
F2.8702022775055073e-05
sV\u7109
p2934
F7.175505693763768e-06
sV\u5956
p2935
F1.4351011387527537e-05
sV\u8c0b
p2936
F0.00010045707971269275
sV\u4f0d
p2937
F2.8702022775055073e-05
sVC
p2938
F0.00022961618220044059
sV\u8511
p2939
F4.305303416258261e-05
sV\u5f99
p2940
F1.4351011387527537e-05
sV\u5e18
p2941
F2.1526517081291305e-05
sV\u9898
p2942
F0.0001578611252628029
sV\u541b
p2943
F0.000308546744831842
sV\u5b9a
p2944
F0.0009686932686581086
sV\u969c
p2945
F4.305303416258261e-05
sV\u8d21
p2946
F1.4351011387527537e-05
sV\u6627
p2947
F1.4351011387527537e-05
sV\u60a8
p2948
F7.175505693763768e-06
sV\u71ac
p2949
F0.00010763258540645652
sV\u63aa
p2950
F5.0228539856346375e-05
sV\u7f2d
p2951
F7.175505693763768e-06
sV\u59ae
p2952
F1.4351011387527537e-05
sV\u7531
p2953
F0.000588391466888629
sV\u8bba
p2954
F0.0002511426992817319
sV\u673d
p2955
F1.4351011387527537e-05
sV\u623f
p2956
F0.00025831820497549567
sV\u61be
p2957
F6.457955124387392e-05
sV\u5ba1
p2958
F5.0228539856346375e-05
sV\u5bdf
p2959
F0.00021526517081291304
sV\u9b45
p2960
F4.305303416258261e-05
sV\u6df7
p2961
F0.00011480809110022029
sV\u5a20
p2962
F7.175505693763768e-06
sV\u5149
p2963
F0.0012198359679398405
sV\u70c8
p2964
F0.0002870202277505507
sV\u53ca
p2965
F0.0003946528131570072
sV\u4f4d
p2966
F0.0002941957334443145
sV\u6551
p2967
F0.00032289775621936956
sV\u87d2
p2968
F7.175505693763768e-06
sV\u6355
p2969
F2.8702022775055073e-05
sV\u62d4
p2970
F0.00018656314803785796
sV\u98d8
p2971
F0.00023679168789420436
sV\u545b
p2972
F7.175505693763768e-06
sV\u6863
p2973
F3.587752846881884e-05
sV\u8fe2
p2974
F7.175505693763768e-05
sV\u6b65
p2975
F0.0006099179839699203
sV\u65e6
p2976
F0.00011480809110022029
sV\u9b54
p2977
F7.893056263140145e-05
sV\u60e8
p2978
F0.0002941957334443145
sV\u63ea
p2979
F7.175505693763768e-06
sV\u9a6f
p2980
F1.4351011387527537e-05
sV\u6628
p2981
F8.610606832516522e-05
sV\u88f8
p2982
F5.0228539856346375e-05
sV\u620d
p2983
F7.175505693763768e-06
sV\u8bfa
p2984
F5.0228539856346375e-05
sV\u66fc
p2985
F0.0007893056263140145
sV\u627f
p2986
F9.328157401892898e-05
sV\u5c81
p2987
F0.0006027424782761565
sV\u5e02
p2988
F7.175505693763768e-05
sV\u7406
p2989
F0.00041617933023829854
sV\u7089
p2990
F0.00020808966511914927
sV\u8d8b
p2991
F7.175505693763768e-06
sV\u520a
p2992
F7.175505693763768e-06
sV\u6491
p2993
F8.610606832516522e-05
sV\u6295
p2994
F0.00015068561956903912
sV\u5f97
p2995
F0.006242689953574478
sV\u70d8
p2996
F0.00010763258540645652
sV\u5899
p2997
F0.00010045707971269275
sV\u7a1a
p2998
F2.8702022775055073e-05
sV\u971c
p2999
F5.7404045550110146e-05
sV\u539f
p3000
F0.0005668649498073376
sV\u5984
p3001
F1.4351011387527537e-05
sV\u6ca1
p3002
F0.002561655532673665
sV\u8e22
p3003
F6.457955124387392e-05
sV\u80a9
p3004
F0.0005525139384198101
sV\u622a
p3005
F0.00014351011387527535
sV\u5ead
p3006
F6.457955124387392e-05
sV\u94b1
p3007
F0.0009973952914331637
sV\u6d32
p3008
F7.175505693763768e-06
sV\u51b3
p3009
F0.0002009141594253855
sV\u9632
p3010
F0.00015068561956903912
sV\u7965
p3011
F3.587752846881884e-05
sV\u5954
p3012
F0.00027984472205678693
sV\u7434
p3013
F9.328157401892898e-05
sV\u79c3
p3014
F4.305303416258261e-05
sV\u9b44
p3015
F0.00012915910248774784
sV\u5446
p3016
F7.175505693763768e-05
sV\u5148
p3017
F0.0005812159611948652
sV\u8dcb
p3018
F7.175505693763768e-06
sV\u524a
p3019
F7.175505693763768e-05
sV\u4ecd
p3020
F0.0005668649498073376
sV\u6bcf
p3021
F0.0007677791092327231
sV\u684e
p3022
F1.4351011387527537e-05
sV\u6652
p3023
F3.587752846881884e-05
sV\u5fd7
p3024
F9.328157401892898e-05
sV\u4e38
p3025
F7.175505693763768e-06
sV\u75db
p3026
F0.0004520568587071174
sV\u5a5a
p3027
F0.00027266921636302316
sV\u5f20
p3028
F0.0006386200067449754
sV\u6ce1
p3029
F7.893056263140145e-05
sV\u8d60
p3030
F3.587752846881884e-05
sV\u89e3
p3031
F0.00032289775621936956
sV\u6b64
p3032
F0.0015427337241592102
sV\u60e9
p3033
F6.457955124387392e-05
sV\u6168
p3034
F0.00010763258540645652
sV\u5deb
p3035
F2.1526517081291305e-05
sV\u7eed
p3036
F0.00017221213665033044
sV\u5f6c
p3037
F2.8702022775055073e-05
sV\u786e
p3038
F0.00017221213665033044
sV\u5570
p3039
F2.1526517081291305e-05
sV\u51f3
p3040
F1.4351011387527537e-05
sV\u5374
p3041
F0.0009399912458830537
sV\u8ff7
p3042
F0.0002941957334443145
sV\u88f9
p3043
F0.00012915910248774784
sV\u85fb
p3044
F7.175505693763768e-06
sV\u573e
p3045
F2.1526517081291305e-05
sV\u5c01
p3046
F0.00022961618220044059
sV\u6bc1
p3047
F0.0001793876423440942
sV\u9707
p3048
F0.00010763258540645652
sV\u5486
p3049
F3.587752846881884e-05
sV\u9009
p3050
F6.457955124387392e-05
sV\u6d0b
p3051
F0.00012198359679398405
sV\u728a
p3052
F7.175505693763768e-06
sV\u4e0d
p3053
F0.011373176524615572
sV\u8113
p3054
F7.175505693763768e-06
sV\u626f
p3055
F9.328157401892898e-05
sV\u5a9a
p3056
F1.4351011387527537e-05
sV\u6ea2
p3057
F7.175505693763768e-05
sV\u8ba4
p3058
F0.0003659507903819522
sV\u6029
p3059
F1.4351011387527537e-05
sV\u81a8
p3060
F2.1526517081291305e-05
sV\u7d2b
p3061
F5.0228539856346375e-05
sV\u8346
p3062
F1.4351011387527537e-05
sV\u5e2d
p3063
F2.8702022775055073e-05
sV\u5431
p3064
F1.4351011387527537e-05
sV\u6839
p3065
F0.00044488135301335363
sV\u653b
p3066
F7.175505693763768e-05
sV\u6eba
p3067
F7.175505693763768e-06
sV\u5c41
p3068
F2.1526517081291305e-05
sV\u6096
p3069
F2.1526517081291305e-05
sV\u5bc4
p3070
F0.00015068561956903912
sV\u5747
p3071
F2.1526517081291305e-05
sV\u54c6
p3072
F3.587752846881884e-05
sV\u6d4b
p3073
F7.893056263140145e-05
sV\u4e4d
p3074
F2.1526517081291305e-05
sV\u684c
p3075
F0.0001793876423440942
sV\u85d0
p3076
F7.175505693763768e-06
sV\u6153
p3077
F7.175505693763768e-06
sV\u7f57
p3078
F9.328157401892898e-05
sV\u7cd6
p3079
F0.00010763258540645652
sV\u79d8
p3080
F0.00030137123913807825
sV\u77dc
p3081
F2.8702022775055073e-05
sV\u6c61
p3082
F4.305303416258261e-05
sV\u73d1
p3083
F2.1526517081291305e-05
sV\u8c79
p3084
F2.1526517081291305e-05
sV\u64e6
p3085
F0.0002941957334443145
sV\u6069
p3086
F0.00013633460818151158
sV\u58ee
p3087
F0.0001578611252628029
sV\u5173
p3088
F0.0005955669725823927
sV\u76f2
p3089
F2.8702022775055073e-05
sV\u7275
p3090
F5.0228539856346375e-05
sV\u5a7f
p3091
F1.4351011387527537e-05
sV\u867d
p3092
F5.7404045550110146e-05
sV\u4f2b
p3093
F7.175505693763768e-06
sV\u5f81
p3094
F5.7404045550110146e-05
sV\u7a83
p3095
F1.4351011387527537e-05
sV\u9985
p3096
F7.175505693763768e-06
sV\u5706
p3097
F0.00014351011387527535
sV\u7389
p3098
F6.457955124387392e-05
sV\u4e8b
p3099
F0.0014709786672215724
sV\u688f
p3100
F1.4351011387527537e-05
sV\u6293
p3101
F0.00012915910248774784
sV\u6512
p3102
F3.587752846881884e-05
sV\u6014
p3103
F3.587752846881884e-05
sV\u7c97
p3104
F0.0003157222505256058
sV\u7f16
p3105
F2.1526517081291305e-05
sV\u9a9a
p3106
F7.175505693763768e-06
sV\u5a18
p3107
F0.0005309874213385188
sV\u591a
p3108
F0.0017867009177471782
sV\u559d
p3109
F0.00025831820497549567
sV\u82db
p3110
F1.4351011387527537e-05
sV\u6fa1
p3111
F1.4351011387527537e-05
sV\u6e20
p3112
F1.4351011387527537e-05
sV\u8d22
p3113
F3.587752846881884e-05
sV\u5750
p3114
F0.0006529710181325029
sV\u6726
p3115
F3.587752846881884e-05
sV\u63a9
p3116
F0.00013633460818151158
sV\u7eab
p3117
F1.4351011387527537e-05
sV\u5c2c
p3118
F3.587752846881884e-05
sV\u54c1
p3119
F0.0003372487676068971
sV\u56f9
p3120
F7.175505693763768e-06
sV\u52b3
p3121
F0.00016503663095656667
sV\u7532
p3122
F3.587752846881884e-05
sV\u51b5
p3123
F0.00014351011387527535
sV\u4f36
p3124
F2.1526517081291305e-05
sV\u6035
p3125
F2.8702022775055073e-05
sV\u65bd
p3126
F2.8702022775055073e-05
sV\u80bf
p3127
F0.00013633460818151158
sV\u54c0
p3128
F0.0001578611252628029
sV\u7fc1
p3129
F2.1526517081291305e-05
sV\u6be1
p3130
F7.175505693763768e-06
sV\u54c7
p3131
F3.587752846881884e-05
sV\u6c1b
p3132
F7.893056263140145e-05
sV\u7248
p3133
F0.00014351011387527535
sV\u4ecb
p3134
F5.0228539856346375e-05
sV\u5eb6
p3135
F1.4351011387527537e-05
sV\u8e7f
p3136
F1.4351011387527537e-05
sV\u62d3
p3137
F1.4351011387527537e-05
sV\u8054
p3138
F7.893056263140145e-05
sV\u76db
p3139
F7.893056263140145e-05
sV\u595a
p3140
F1.4351011387527537e-05
sV\u545c
p3141
F5.0228539856346375e-05
sV\u70df
p3142
F0.00038747730746324345
sV\u4fe1
p3143
F0.0011696074280834942
sV\u4e60
p3144
F0.0002009141594253855
sV\u8d62
p3145
F7.175505693763768e-06
sV\u60e7
p3146
F0.00012198359679398405
sV\u63e9
p3147
F7.175505693763768e-06
sV\u5f69
p3148
F0.00017221213665033044
sV\u8f76
p3149
F7.175505693763768e-06
sV\u9968
p3150
F7.175505693763768e-06
sV\uff01
p3151
F0.003401189698844026
sV\u5a03
p3152
F0.00012198359679398405
sV\u556a
p3153
F3.587752846881884e-05
sV\u9884
p3154
F0.00020808966511914927
sV\u5288
p3155
F2.1526517081291305e-05
sV\u4e0b
p3156
F0.0029850103686057273
sV\u718a
p3157
F0.00010763258540645652
sV\u6c8c
p3158
F7.175505693763768e-06
sV\u680f
p3159
F6.457955124387392e-05
sV\u6115
p3160
F1.4351011387527537e-05
sV\u9669
p3161
F0.00015068561956903912
sV\u971e
p3162
F1.4351011387527537e-05
sV\u7a98
p3163
F4.305303416258261e-05
sV\u561b
p3164
F7.175505693763768e-05
sV\u6f6e
p3165
F0.0002009141594253855
sV\u901f
p3166
F0.00012198359679398405
sV\u5c16
p3167
F0.0003803018017694797
sV\u8925
p3168
F2.1526517081291305e-05
sV\u8427
p3169
F1.4351011387527537e-05
sV\u8270
p3170
F4.305303416258261e-05
sV\u62a8
p3171
F7.175505693763768e-06
sV\u96c6
p3172
F0.00020808966511914927
sV\u5d2d
p3173
F5.0228539856346375e-05
sV\u75b2
p3174
F0.00011480809110022029
sV\u8c37
p3175
F5.7404045550110146e-05
sV\u914c
p3176
F7.175505693763768e-06
sV\u853d
p3177
F1.4351011387527537e-05
sV\u64bc
p3178
F0.00010045707971269275
sV\u803f
p3179
F1.4351011387527537e-05
sV\u61ca
p3180
F2.1526517081291305e-05
sV\u90ca
p3181
F2.8702022775055073e-05
sV\u72c8
p3182
F2.8702022775055073e-05
sV\u4e4b
p3183
F0.001636015298178139
sV\u8574
p3184
F2.8702022775055073e-05
sV\u6ccc
p3185
F7.175505693763768e-06
sV\u8dcc
p3186
F3.587752846881884e-05
sV\u6751
p3187
F0.00014351011387527535
sV\u6253
p3188
F0.0009256402344955261
sV\u8155
p3189
F2.8702022775055073e-05
sV\u5fd6
p3190
F7.175505693763768e-06
sV\u5b59
p3191
F5.0228539856346375e-05
sV\u9ad8
p3192
F0.001076325854064565
sV\u94dc
p3193
F7.175505693763768e-06
sV\u88e4
p3194
F0.00025831820497549567
sV\u5389
p3195
F0.00010763258540645652
sV\u62e8
p3196
F0.00015068561956903912
sV\u81ea
p3197
F0.002626235083917539
sV\u7bee
p3198
F7.175505693763768e-06
sV\u56f0
p3199
F8.610606832516522e-05
sV\u95f2
p3200
F5.0228539856346375e-05
sV\u5175
p3201
F9.328157401892898e-05
sV\u607f
p3202
F1.4351011387527537e-05
sV\u5f00
p3203
F0.001973264065785036
sV\u5b83
p3204
F0.001700594849422013
sV\u9885
p3205
F5.0228539856346375e-05
sV\u5904
p3206
F0.0009328157401892899
sV\u7606
p3207
F1.4351011387527537e-05
sV\u4f8b
p3208
F0.00012198359679398405
sV\u300a
p3209
F0.0002654937106692594
sV\u6691
p3210
F7.175505693763768e-06
sV\u8393
p3211
F7.175505693763768e-06
sV\u9a97
p3212
F3.587752846881884e-05
sV\u579b
p3213
F5.0228539856346375e-05
sV\u949d
p3214
F1.4351011387527537e-05
sV\u751c
p3215
F0.00012915910248774784
sV\u719f
p3216
F0.00025831820497549567
sV\u4ea1
p3217
F0.00013633460818151158
sV\u6f20
p3218
F7.175505693763768e-05
sV\u8c22
p3219
F5.7404045550110146e-05
sV\u65a7
p3220
F2.8702022775055073e-05
sV\u6328
p3221
F0.00014351011387527535
sV\u602a
p3222
F0.000308546744831842
sV\u5cad
p3223
F0.00012915910248774784
sV\u76b1
p3224
F5.7404045550110146e-05
sV\u9730
p3225
F7.175505693763768e-06
sV\u853c
p3226
F7.175505693763768e-06
sV\u623e
p3227
F7.175505693763768e-06
sV\u5c42
p3228
F0.0001793876423440942
sV\u78c5
p3229
F7.175505693763768e-06
sV\u5944
p3230
F2.8702022775055073e-05
sV\u75c7
p3231
F2.1526517081291305e-05
sV\u9646
p3232
F2.1526517081291305e-05
sV\u52c9
p3233
F2.1526517081291305e-05
sV\u5348
p3234
F0.00013633460818151158
sV\u8d4c
p3235
F5.0228539856346375e-05
sV\u6750
p3236
F0.00011480809110022029
sV\u9a76
p3237
F8.610606832516522e-05
sV\u60d5
p3238
F2.1526517081291305e-05
sV\u8154
p3239
F8.610606832516522e-05
sV\u4e0a
p3240
F0.0054820863500355185
sV\u5b58
p3241
F0.00030137123913807825
sV\u77db
p3242
F4.305303416258261e-05
sV\u94dd
p3243
F2.1526517081291305e-05
sV\u955c
p3244
F0.00014351011387527535
sV\u5eca
p3245
F1.4351011387527537e-05
sV\u6ee1
p3246
F0.0008395341661703609
sV\u4f60
p3247
F0.0033294346419063883
sV\u65e7
p3248
F0.0003731262960757159
sV\u6666
p3249
F2.1526517081291305e-05
sV\u62e9
p3250
F5.7404045550110146e-05
sV\u5feb
p3251
F0.0009184647288017623
sV\u806a
p3252
F7.893056263140145e-05
sV\u5ced
p3253
F7.175505693763768e-06
sV\u79ef
p3254
F0.0002009141594253855
sV\u56f1
p3255
F1.4351011387527537e-05
sV\u7269
p3256
F0.0005022853985634638
sV\u53f3
p3257
F8.610606832516522e-05
sV\u5192
p3258
F0.00020808966511914927
sV\u50f5
p3259
F0.00019373865373162173
sV\u5174
p3260
F0.00044488135301335363
sV\u8df7
p3261
F7.175505693763768e-06
sV\u8e76
p3262
F7.175505693763768e-06
sV\u827e
p3263
F7.175505693763768e-06
sV\u5e01
p3264
F2.8702022775055073e-05
sV\u5f80
p3265
F0.0007175505693763768
sV\u9984
p3266
F7.175505693763768e-06
sV\u5507
p3267
F0.0001578611252628029
sV\u7686
p3268
F2.1526517081291305e-05
sV\u708a
p3269
F1.4351011387527537e-05
sV\u6d8c
p3270
F0.00013633460818151158
sV\u5631
p3271
F5.7404045550110146e-05
sV\u54b1
p3272
F6.457955124387392e-05
sV\u8611
p3273
F2.1526517081291305e-05
sV\u6790
p3274
F2.1526517081291305e-05
sV\u6492
p3275
F1.4351011387527537e-05
sV\u6015
p3276
F0.0009471667515768174
sV\u6194
p3277
F3.587752846881884e-05
sV\u5b98
p3278
F6.457955124387392e-05
sV\u989a
p3279
F2.1526517081291305e-05
sV\u541d
p3280
F7.175505693763768e-06
sV\u559c
p3281
F0.0007462525921514318
sV\u529e
p3282
F0.00027984472205678693
sV\u6e21
p3283
F1.4351011387527537e-05
sV\u4fa0
p3284
F7.175505693763768e-06
sV\u6b23
p3285
F7.175505693763768e-05
sV\u4ee4
p3286
F0.00033007326191313333
sV\u63a8
p3287
F0.00033007326191313333
sV\u6001
p3288
F0.00014351011387527535
sV\u592f
p3289
F7.175505693763768e-06
sV\u9631
p3290
F2.1526517081291305e-05
sV\u54f2
p3291
F2.8702022775055073e-05
sV\u8d37
p3292
F7.175505693763768e-06
sV\u6eb6
p3293
F2.1526517081291305e-05
sV\u8bb8
p3294
F0.0009902197857394
sV\u873b
p3295
F7.175505693763768e-06
sV\u843d
p3296
F0.0007534280978451956
sV\u613f
p3297
F0.00041617933023829854
sV\u7e41
p3298
F2.1526517081291305e-05
sV\u8d77
p3299
F0.0031931000337248766
sV\u9547
p3300
F5.0228539856346375e-05
sV\u76c6
p3301
F5.0228539856346375e-05
sV\u53c8
p3302
F0.0019589130543975087
sV\u70ca
p3303
F7.175505693763768e-06
sV\u6dcc
p3304
F7.893056263140145e-05
sV\u8651
p3305
F7.893056263140145e-05
sV\u67d0
p3306
F0.00017221213665033044
sV\u64d2
p3307
F7.175505693763768e-06
sVU
p3308
F0.00011480809110022029
sV\u5ed6
p3309
F1.4351011387527537e-05
sV\u6d25
p3310
F7.175505693763768e-05
sV\u575b
p3311
F1.4351011387527537e-05
sV\u55dc
p3312
F2.1526517081291305e-05
sV\u72de
p3313
F5.0228539856346375e-05
sV\u4e61
p3314
F0.00018656314803785796
sV\u6b63
p3315
F0.0009973952914331637
sV\u6ce2
p3316
F6.457955124387392e-05
sV\u6865
p3317
F7.175505693763768e-06
sV'
p3318
F4.305303416258261e-05
sV\u6269
p3319
F1.4351011387527537e-05
sV\u996f
p3320
F7.175505693763768e-06
sV\u5373
p3321
F0.00044488135301335363
sV\u8e52
p3322
F1.4351011387527537e-05
sV\u7075
p3323
F0.0004233548359320623
sV\u6d77
p3324
F0.00043770584731958986
sV\u4ef6
p3325
F0.0004305303416258261
sV\u6a79
p3326
F7.175505693763768e-06
sV\u6f88
p3327
F2.1526517081291305e-05
sV\u68fa
p3328
F2.1526517081291305e-05
sV\u817f
p3329
F0.00044488135301335363
sV\u5b54
p3330
F5.7404045550110146e-05
s.